ARM GAS  C:\Users\Ecapable\AppData\Local\Temp\cc12s5fi.s 			page 1


   1              		.cpu cortex-m0
   2              		.fpu softvfp
   3              		.eabi_attribute 20, 1
   4              		.eabi_attribute 21, 1
   5              		.eabi_attribute 23, 3
   6              		.eabi_attribute 24, 1
   7              		.eabi_attribute 25, 1
   8              		.eabi_attribute 26, 1
   9              		.eabi_attribute 30, 6
  10              		.eabi_attribute 34, 0
  11              		.eabi_attribute 18, 4
  12              		.code	16
  13              		.file	"BLEApplication.c"
  14              		.text
  15              	.Ltext0:
  16              		.cfi_sections	.debug_frame
  17              		.global	StartAdvertisement
  18              		.bss
  19              		.type	StartAdvertisement, %object
  20              		.size	StartAdvertisement, 1
  21              	StartAdvertisement:
  22 0000 00       		.space	1
  23              		.global	DeviceConnected
  24              		.type	DeviceConnected, %object
  25              		.size	DeviceConnected, 1
  26              	DeviceConnected:
  27 0001 00       		.space	1
  28              		.global	BLEStackStatus
  29              		.type	BLEStackStatus, %object
  30              		.size	BLEStackStatus, 1
  31              	BLEStackStatus:
  32 0002 00       		.space	1
  33              		.global	ConnectionParametersUpdateRequired
  34              		.data
  35              		.type	ConnectionParametersUpdateRequired, %object
  36              		.size	ConnectionParametersUpdateRequired, 1
  37              	ConnectionParametersUpdateRequired:
  38 0000 01       		.byte	1
  39              		.global	TemperatureNotificationEnabled
  40              		.bss
  41              		.type	TemperatureNotificationEnabled, %object
  42              		.size	TemperatureNotificationEnabled, 1
  43              	TemperatureNotificationEnabled:
  44 0003 00       		.space	1
  45              		.global	PressureNotificationEnabled
  46              		.type	PressureNotificationEnabled, %object
  47              		.size	PressureNotificationEnabled, 1
  48              	PressureNotificationEnabled:
  49 0004 00       		.space	1
  50              		.global	AltitudeNotificationEnabled
  51              		.type	AltitudeNotificationEnabled, %object
  52              		.size	AltitudeNotificationEnabled, 1
  53              	AltitudeNotificationEnabled:
  54 0005 00       		.space	1
  55              		.global	UpdateTemperatureNotificationAttribute
  56              		.type	UpdateTemperatureNotificationAttribute, %object
  57              		.size	UpdateTemperatureNotificationAttribute, 1
ARM GAS  C:\Users\Ecapable\AppData\Local\Temp\cc12s5fi.s 			page 2


  58              	UpdateTemperatureNotificationAttribute:
  59 0006 00       		.space	1
  60              		.global	UpdatePressureNotificationAttribute
  61              		.type	UpdatePressureNotificationAttribute, %object
  62              		.size	UpdatePressureNotificationAttribute, 1
  63              	UpdatePressureNotificationAttribute:
  64 0007 00       		.space	1
  65              		.global	UpdateAltitudeNotificationAttribute
  66              		.type	UpdateAltitudeNotificationAttribute, %object
  67              		.size	UpdateAltitudeNotificationAttribute, 1
  68              	UpdateAltitudeNotificationAttribute:
  69 0008 00       		.space	1
  70              		.comm	TemperatureNotificationCCCDValue,2,4
  71              		.comm	PressureNotificationCCCDValue,2,4
  72              		.comm	AltitudeNotificationCCCDValue,2,4
  73              		.comm	TemperatureNotificationData,4,4
  74              		.comm	PressureNotificationData,4,4
  75              		.comm	AltitudeNotificationData,4,4
  76 0009 000000   		.align	2
  77              	ConnectionHandle:
  78 000c 0000     		.space	2
  79 000e 0000     		.align	2
  80              	WriteRequestedParameter:
  81 0010 00000000 		.space	4
  82              		.align	2
  83              	TemperatureNotificationHandle:
  84 0014 00000000 		.space	12
  84      00000000 
  84      00000000 
  85              		.align	2
  86              	PressureNotificationHandle:
  87 0020 00000000 		.space	12
  87      00000000 
  87      00000000 
  88              		.align	2
  89              	AltitudeNotificationHandle:
  90 002c 00000000 		.space	12
  90      00000000 
  90      00000000 
  91              		.align	2
  92              	TemperatureNotificationCCCDHandle:
  93 0038 00000000 		.space	12
  93      00000000 
  93      00000000 
  94              		.align	2
  95              	PressureNotificationCCCDHandle:
  96 0044 00000000 		.space	12
  96      00000000 
  96      00000000 
  97              		.align	2
  98              	AltitudeNotificationCCCDHandle:
  99 0050 00000000 		.space	12
  99      00000000 
  99      00000000 
 100              		.data
 101 0001 000000   		.align	2
 102              		.type	ConnectionParametersHandle, %object
ARM GAS  C:\Users\Ecapable\AppData\Local\Temp\cc12s5fi.s 			page 3


 103              		.size	ConnectionParametersHandle, 8
 104              	ConnectionParametersHandle:
 105 0004 6400     		.short	100
 106 0006 6E00     		.short	110
 107 0008 0000     		.short	0
 108 000a C800     		.short	200
 109              		.section	.text.CustomEventHandler,"ax",%progbits
 110              		.align	2
 111              		.global	CustomEventHandler
 112              		.code	16
 113              		.thumb_func
 114              		.type	CustomEventHandler, %function
 115              	CustomEventHandler:
 116              	.LFB37:
 117              		.file 1 ".\\BLEApplication.c"
   1:.\BLEApplication.c **** /**************************************************************************************************
   2:.\BLEApplication.c **** * Project Name		: PSoC_4_BLE_Pressure_Sensor
   3:.\BLEApplication.c **** * File Name			: BLEApplication.c
   4:.\BLEApplication.c **** * Version 			: 1.0
   5:.\BLEApplication.c **** * Device Used		: CY8C4247LQI-BL483
   6:.\BLEApplication.c **** * Software Used		: PSoC Creator 3.1
   7:.\BLEApplication.c **** * Compiler    		: ARM GCC 4.8.4
   8:.\BLEApplication.c **** * Related Hardware	: CY8CKIT-042-BLE Bluetooth Low Energy Pioneer Kit
   9:.\BLEApplication.c **** ***************************************************************************************************
  10:.\BLEApplication.c **** 
  11:.\BLEApplication.c **** /**************************************************************************************************
  12:.\BLEApplication.c **** * Copyright (2015), Cypress Semiconductor Corporation. All Rights Reserved.
  13:.\BLEApplication.c **** ***************************************************************************************************
  14:.\BLEApplication.c **** * This software, including source code, documentation and related materials
  15:.\BLEApplication.c **** * ("Software") is owned by Cypress Semiconductor Corporation (Cypress) and is
  16:.\BLEApplication.c **** * protected by and subject to worldwide patent protection (United States and 
  17:.\BLEApplication.c **** * foreign), United States copyright laws and international treaty provisions. 
  18:.\BLEApplication.c **** * Cypress hereby grants to licensee a personal, non-exclusive, non-transferable
  19:.\BLEApplication.c **** * license to copy, use, modify, create derivative works of, and compile the 
  20:.\BLEApplication.c **** * Cypress source code and derivative works for the sole purpose of creating 
  21:.\BLEApplication.c **** * custom software in support of licensee product, such licensee product to be
  22:.\BLEApplication.c **** * used only in conjunction with Cypress's integrated circuit as specified in the
  23:.\BLEApplication.c **** * applicable agreement. Any reproduction, modification, translation, compilation,
  24:.\BLEApplication.c **** * or representation of this Software except as specified above is prohibited 
  25:.\BLEApplication.c **** * without the express written permission of Cypress.
  26:.\BLEApplication.c **** * 
  27:.\BLEApplication.c **** * Disclaimer: THIS SOFTWARE IS PROVIDED AS-IS, WITH NO WARRANTY OF ANY KIND, 
  28:.\BLEApplication.c **** * EXPRESS OR IMPLIED, INCLUDING, BUT NOT LIMITED TO, NONINFRINGEMENT, IMPLIED 
  29:.\BLEApplication.c **** * WARRANTIES OF MERCHANTABILITY AND FITNESS FOR A PARTICULAR PURPOSE.
  30:.\BLEApplication.c **** * Cypress reserves the right to make changes to the Software without notice. 
  31:.\BLEApplication.c **** * Cypress does not assume any liability arising out of the application or use
  32:.\BLEApplication.c **** * of Software or any product or circuit described in the Software. Cypress does
  33:.\BLEApplication.c **** * not authorize its products for use as critical components in any products 
  34:.\BLEApplication.c **** * where a malfunction or failure may reasonably be expected to result in 
  35:.\BLEApplication.c **** * significant injury or death ("ACTIVE Risk Product"). By including Cypress's 
  36:.\BLEApplication.c **** * product in a ACTIVE Risk Product, the manufacturer of such system or application
  37:.\BLEApplication.c **** * assumes all risk of such use and in doing so indemnifies Cypress against all
  38:.\BLEApplication.c **** * liability. Use of this Software may be limited by and subject to the applicable
  39:.\BLEApplication.c **** * Cypress software license agreement.
  40:.\BLEApplication.c **** ***************************************************************************************************
  41:.\BLEApplication.c **** 
  42:.\BLEApplication.c **** #include <BLEApplication.h>
ARM GAS  C:\Users\Ecapable\AppData\Local\Temp\cc12s5fi.s 			page 4


  43:.\BLEApplication.c **** 
  44:.\BLEApplication.c **** /*************************Variables Declaration****************************************************
  45:.\BLEApplication.c **** uint8 StartAdvertisement = FALSE; //This flag is used to start advertisement
  46:.\BLEApplication.c **** uint8 DeviceConnected = FALSE; //This flag is set when a Central device is connected
  47:.\BLEApplication.c **** uint8 BLEStackStatus = FALSE; //Variable store the BLE stack status
  48:.\BLEApplication.c **** uint8 ConnectionParametersUpdateRequired = TRUE; //This flag is used to send the connection paramet
  49:.\BLEApplication.c **** uint8 TemperatureNotificationEnabled = FALSE; //This flag is set when the Central device writes to 
  50:.\BLEApplication.c **** uint8 PressureNotificationEnabled = FALSE; //This flag is set when the Central device writes to CCC
  51:.\BLEApplication.c **** uint8 AltitudeNotificationEnabled = FALSE; //This flag is set when the Central device writes to CCC
  52:.\BLEApplication.c **** uint8 UpdateTemperatureNotificationAttribute = FALSE; //This flags is used to update the respective
  53:.\BLEApplication.c **** uint8 UpdatePressureNotificationAttribute = FALSE; //This flags is used to update the respective pr
  54:.\BLEApplication.c **** uint8 UpdateAltitudeNotificationAttribute = FALSE; //This flags is used to update the respective al
  55:.\BLEApplication.c **** uint8 TemperatureNotificationCCCDValue[0x02]; //The temperature CCCD value is stored in this array
  56:.\BLEApplication.c **** uint8 PressureNotificationCCCDValue[0x02]; //The pressure CCCD value is stored in this array
  57:.\BLEApplication.c **** uint8 AltitudeNotificationCCCDValue[0x02]; //The altitude CCCD value is stored in this array
  58:.\BLEApplication.c **** uint8 TemperatureNotificationData[0x04]; //The temperature notification value is stored in this arr
  59:.\BLEApplication.c **** uint8 PressureNotificationData[0x04]; //The pressure notification value is stored in this array
  60:.\BLEApplication.c **** uint8 AltitudeNotificationData[0x04]; //The altitude notification value is stored in this array
  61:.\BLEApplication.c **** extern uint8 ChangePowerPinDriveMode; //This flag is set when the GATT disconnect event occurs
  62:.\BLEApplication.c **** extern long LastTemperatureData; //Previous temperature reading is stored in this variable
  63:.\BLEApplication.c **** extern long LastPressureData; //Previous pressure reading is stored in this variable
  64:.\BLEApplication.c **** extern long LastAltitudeData; //Previous altitude reading is stored in this variable
  65:.\BLEApplication.c **** static CYBLE_CONN_HANDLE_T ConnectionHandle; //This handle stores the connection parameters
  66:.\BLEApplication.c **** static CYBLE_GATTS_WRITE_REQ_PARAM_T *WriteRequestedParameter; //Variable to store the data receive
  67:.\BLEApplication.c **** static CYBLE_GATTS_HANDLE_VALUE_NTF_T TemperatureNotificationHandle; //This handle stores the tempe
  68:.\BLEApplication.c **** static CYBLE_GATTS_HANDLE_VALUE_NTF_T PressureNotificationHandle; //This handle stores the pressure
  69:.\BLEApplication.c **** static CYBLE_GATTS_HANDLE_VALUE_NTF_T AltitudeNotificationHandle; //This handle stores the altitude
  70:.\BLEApplication.c **** static CYBLE_GATT_HANDLE_VALUE_PAIR_T TemperatureNotificationCCCDHandle; //This handle is used to u
  71:.\BLEApplication.c **** static CYBLE_GATT_HANDLE_VALUE_PAIR_T PressureNotificationCCCDHandle; //This handle is used to upda
  72:.\BLEApplication.c **** static CYBLE_GATT_HANDLE_VALUE_PAIR_T AltitudeNotificationCCCDHandle; //This handle is used to upda
  73:.\BLEApplication.c **** static CYBLE_GAP_CONN_UPDATE_PARAM_T ConnectionParametersHandle = {CONN_PARAM_UPDATE_MIN_CONN_INTER
  74:.\BLEApplication.c ****     CONN_PARAM_UPDATE_SLAVE_LATENCY, CONN_PARAM_UPDATE_SUPRV_TIMEOUT}; //Connection Parameter updat
  75:.\BLEApplication.c **** /**************************************************************************************************
  76:.\BLEApplication.c **** 
  77:.\BLEApplication.c **** /**************************************************************************************************
  78:.\BLEApplication.c **** * Function Name: CustomEventHandler
  79:.\BLEApplication.c **** ***************************************************************************************************
  80:.\BLEApplication.c **** * Summary: This is a call back event function to handle various events from BLE stack.
  81:.\BLEApplication.c **** *
  82:.\BLEApplication.c **** * Parameters:
  83:.\BLEApplication.c **** *  Event - Event returned
  84:.\BLEApplication.c **** *  EventParameter - Link to value of the event returned
  85:.\BLEApplication.c **** *
  86:.\BLEApplication.c **** * Return:
  87:.\BLEApplication.c **** *  void
  88:.\BLEApplication.c **** *
  89:.\BLEApplication.c **** ***************************************************************************************************
  90:.\BLEApplication.c **** void CustomEventHandler(uint32 Event, void *EventParameter)
  91:.\BLEApplication.c **** {
 118              		.loc 1 91 0
 119              		.cfi_startproc
 120 0000 80B5     		push	{r7, lr}
 121              		.cfi_def_cfa_offset 8
 122              		.cfi_offset 7, -8
 123              		.cfi_offset 14, -4
 124 0002 82B0     		sub	sp, sp, #8
 125              		.cfi_def_cfa_offset 16
ARM GAS  C:\Users\Ecapable\AppData\Local\Temp\cc12s5fi.s 			page 5


 126 0004 00AF     		add	r7, sp, #0
 127              		.cfi_def_cfa_register 7
 128 0006 7860     		str	r0, [r7, #4]
 129 0008 3960     		str	r1, [r7]
  92:.\BLEApplication.c ****     switch(Event)
 130              		.loc 1 92 0
 131 000a 7B68     		ldr	r3, [r7, #4]
 132 000c 282B     		cmp	r3, #40
 133 000e 26D0     		beq	.L3
 134 0010 06D8     		bhi	.L4
 135 0012 052B     		cmp	r3, #5
 136 0014 15D0     		beq	.L5
 137 0016 262B     		cmp	r3, #38
 138 0018 18D0     		beq	.L6
 139 001a 012B     		cmp	r3, #1
 140 001c 0DD0     		beq	.L7
  93:.\BLEApplication.c **** 	{
  94:.\BLEApplication.c ****         /**********************************************************
  95:.\BLEApplication.c ****         *                       General Events
  96:.\BLEApplication.c ****         ***********************************************************/
  97:.\BLEApplication.c **** 		case CYBLE_EVT_STACK_ON: //This event is received when the BLE component is started			
  98:.\BLEApplication.c ****             StartAdvertisement = TRUE; //Set the advertisement flag
  99:.\BLEApplication.c **** 		break;
 100:.\BLEApplication.c ****             
 101:.\BLEApplication.c ****         case CYBLE_EVT_STACK_BUSY_STATUS: //This event is generated when the internal stack buffer 
 102:.\BLEApplication.c ****             BLEStackStatus = *(uint8*)EventParameter; //Extract the BLE stack status
 103:.\BLEApplication.c ****         break;
 104:.\BLEApplication.c ****         
 105:.\BLEApplication.c ****         /**********************************************************
 106:.\BLEApplication.c ****         *                       GAP Events
 107:.\BLEApplication.c ****         ***********************************************************/		
 108:.\BLEApplication.c ****         case CYBLE_EVT_GAPP_ADVERTISEMENT_START_STOP: //This event is received when the device star
 109:.\BLEApplication.c ****             if(CyBle_GetState() == CYBLE_STATE_DISCONNECTED)
 110:.\BLEApplication.c ****             {
 111:.\BLEApplication.c ****                 StartAdvertisement = TRUE; //Set the advertisement flag
 112:.\BLEApplication.c ****             }
 113:.\BLEApplication.c ****         break;
 114:.\BLEApplication.c **** 			
 115:.\BLEApplication.c **** 		case CYBLE_EVT_GAP_DEVICE_DISCONNECTED: //This event is received when the device is disconnected
 116:.\BLEApplication.c **** 			StartAdvertisement = TRUE; //Set the advertisement flag
 117:.\BLEApplication.c ****         break;
 118:.\BLEApplication.c **** 
 119:.\BLEApplication.c ****         /**********************************************************
 120:.\BLEApplication.c ****         *                       GATT Events
 121:.\BLEApplication.c ****         ***********************************************************/
 122:.\BLEApplication.c ****         case CYBLE_EVT_GATT_CONNECT_IND: //This event is received when the device is connected over
 123:.\BLEApplication.c **** 			ConnectionHandle = *(CYBLE_CONN_HANDLE_T *)EventParameter; //Update the attribute handle on GATT
 124:.\BLEApplication.c **** 			
 125:.\BLEApplication.c **** 			DeviceConnected = TRUE; //Set device connection status flag
 126:.\BLEApplication.c ****             ChangePowerPinDriveMode = FALSE; //Clear change power pin drive mode flag
 127:.\BLEApplication.c ****         break;
 128:.\BLEApplication.c **** 			
 129:.\BLEApplication.c ****         case CYBLE_EVT_GATT_DISCONNECT_IND: //This event is received when device is disconnected
 130:.\BLEApplication.c **** 			DeviceConnected = FALSE; //Clear device connection status flag
 131:.\BLEApplication.c ****             TemperatureNotificationEnabled = FALSE; //Clear the temperature notification flag
 132:.\BLEApplication.c ****             PressureNotificationEnabled =  FALSE; //Clear the pressure notification flag
 133:.\BLEApplication.c ****             AltitudeNotificationEnabled = FALSE; //Clear the altitude notification flag
ARM GAS  C:\Users\Ecapable\AppData\Local\Temp\cc12s5fi.s 			page 6


 134:.\BLEApplication.c ****             UpdateTemperatureNotificationAttribute = TRUE; //Clear the update temperature notificat
 135:.\BLEApplication.c ****             UpdatePressureNotificationAttribute = TRUE; //Clear the update pressure notification fl
 136:.\BLEApplication.c ****             UpdateAltitudeNotificationAttribute = TRUE; //Clear the update altitude notification fl
 137:.\BLEApplication.c ****             /* Clear temperature notification data */
 138:.\BLEApplication.c ****             TemperatureNotificationData[0x03] = TemperatureNotificationData[0x02] = TemperatureNoti
 139:.\BLEApplication.c ****             /* Clear pressure notification data */
 140:.\BLEApplication.c ****             PressureNotificationData[0x03] = PressureNotificationData[0x02] = PressureNotificationD
 141:.\BLEApplication.c ****             /* Clear altitude notification data */
 142:.\BLEApplication.c ****             AltitudeNotificationData[0x03] = AltitudeNotificationData[0x02] = AltitudeNotificationD
 143:.\BLEApplication.c ****             LastTemperatureData = ZERO; //Clear last stored temperature notification data
 144:.\BLEApplication.c ****             LastPressureData = ZERO; //Clear last stored pressure notification data
 145:.\BLEApplication.c ****             LastAltitudeData = ZERO; //Clear last stored altitude notification data
 146:.\BLEApplication.c ****             ChangePowerPinDriveMode = TRUE; //Set change power pin drive mode flag
 147:.\BLEApplication.c ****             ConnectionParametersUpdateRequired = TRUE; //Set the Connection Parameters Update flag
 148:.\BLEApplication.c ****             UpdateNotificationCCCDAttribute(); //Update the CCCD writing by the Central device
 149:.\BLEApplication.c **** 		break;
 150:.\BLEApplication.c ****             
 151:.\BLEApplication.c ****         case CYBLE_EVT_GATTS_WRITE_REQ: //When this event is triggered, the peripheral has received
 152:.\BLEApplication.c **** 			/* Extract the write value from the event parameter */
 153:.\BLEApplication.c ****             WriteRequestedParameter = (CYBLE_GATTS_WRITE_REQ_PARAM_T *)EventParameter;
 154:.\BLEApplication.c **** 			
 155:.\BLEApplication.c **** 			/* Check if command is for notification attribute and update the flag for sending notifications 
 156:.\BLEApplication.c ****             if(WriteRequestedParameter->handleValPair.attrHandle == CYBLE_BMP180_TEMPERATURE_CLIENT
 157:.\BLEApplication.c ****             {
 158:.\BLEApplication.c ****                 /* Set temperature notification flag so that application can start sending notifica
 159:.\BLEApplication.c **** 				TemperatureNotificationEnabled = WriteRequestedParameter->handleValPair.value.val[CYBLE_BMP180_
 160:.\BLEApplication.c ****                 
 161:.\BLEApplication.c ****                 UpdateTemperatureNotificationAttribute = TRUE; //Set flag to allow CCCD to be updat
 162:.\BLEApplication.c ****             }
 163:.\BLEApplication.c ****             
 164:.\BLEApplication.c ****             /* Check if command is for notification attribute and update the flag for sending notif
 165:.\BLEApplication.c ****             if(WriteRequestedParameter->handleValPair.attrHandle == CYBLE_BMP180_PRESSURE_CLIENT_CH
 166:.\BLEApplication.c ****             {
 167:.\BLEApplication.c ****                 /* Set pressure notification flag so that application can start sending notificatio
 168:.\BLEApplication.c **** 				PressureNotificationEnabled = WriteRequestedParameter->handleValPair.value.val[CYBLE_BMP180_PRE
 169:.\BLEApplication.c ****                 
 170:.\BLEApplication.c ****                 UpdatePressureNotificationAttribute = TRUE; //Set flag to allow CCCD to be updated 
 171:.\BLEApplication.c ****             }
 172:.\BLEApplication.c ****             
 173:.\BLEApplication.c ****             /* Check if command is for notification attribute and update the flag for sending notif
 174:.\BLEApplication.c ****             if(WriteRequestedParameter->handleValPair.attrHandle == CYBLE_BMP180_ALTITUDE_CLIENT_CH
 175:.\BLEApplication.c ****             {
 176:.\BLEApplication.c ****                 /* Set altitude notification flag so that application can start sending notificatio
 177:.\BLEApplication.c **** 				AltitudeNotificationEnabled = WriteRequestedParameter->handleValPair.value.val[CYBLE_BMP180_ALT
 178:.\BLEApplication.c ****                 
 179:.\BLEApplication.c ****                 UpdateAltitudeNotificationAttribute = TRUE; //Set flag to allow CCCD to be updated 
 180:.\BLEApplication.c ****             }
 181:.\BLEApplication.c ****             
 182:.\BLEApplication.c ****             /* Send response to the write command received */
 183:.\BLEApplication.c **** 			CyBle_GattsWriteRsp(ConnectionHandle);
 184:.\BLEApplication.c ****         break;
 185:.\BLEApplication.c ****             
 186:.\BLEApplication.c ****         /**********************************************************
 187:.\BLEApplication.c ****         *                       L2CAP Events
 188:.\BLEApplication.c ****         ***********************************************************/
 189:.\BLEApplication.c ****             
 190:.\BLEApplication.c ****         case CYBLE_EVT_L2CAP_CONN_PARAM_UPDATE_RSP: //This event is generated when the L2CAP connec
ARM GAS  C:\Users\Ecapable\AppData\Local\Temp\cc12s5fi.s 			page 7


 191:.\BLEApplication.c ****             ConnectionParametersUpdateRequired = FALSE; //Clear the Connection Parameters Update fl
 192:.\BLEApplication.c ****         break;
 193:.\BLEApplication.c **** 			
 194:.\BLEApplication.c ****         default:
 195:.\BLEApplication.c ****         break;
 141              		.loc 1 195 0
 142 001e BDE0     		b	.L1
 143              	.L4:
  92:.\BLEApplication.c ****     switch(Event)
 144              		.loc 1 92 0
 145 0020 422B     		cmp	r3, #66
 146 0022 31D0     		beq	.L8
 147 0024 02D8     		bhi	.L9
 148 0026 412B     		cmp	r3, #65
 149 0028 1DD0     		beq	.L10
 150              		.loc 1 195 0
 151 002a B7E0     		b	.L1
 152              	.L9:
  92:.\BLEApplication.c ****     switch(Event)
 153              		.loc 1 92 0
 154 002c 4C2B     		cmp	r3, #76
 155 002e 00D1     		bne	.LCB40
 156 0030 7EE0     		b	.L11	@long jump
 157              	.LCB40:
 158 0032 712B     		cmp	r3, #113
 159 0034 00D1     		bne	.LCB42
 160 0036 ADE0     		b	.L12	@long jump
 161              	.LCB42:
 162              		.loc 1 195 0
 163 0038 B0E0     		b	.L1
 164              	.L7:
  98:.\BLEApplication.c **** 		break;
 165              		.loc 1 98 0
 166 003a 5A4B     		ldr	r3, .L18
 167 003c 0122     		mov	r2, #1
 168 003e 1A70     		strb	r2, [r3]
  99:.\BLEApplication.c ****             
 169              		.loc 1 99 0
 170 0040 ACE0     		b	.L1
 171              	.L5:
 102:.\BLEApplication.c ****         break;
 172              		.loc 1 102 0
 173 0042 3B68     		ldr	r3, [r7]
 174 0044 1A78     		ldrb	r2, [r3]
 175 0046 584B     		ldr	r3, .L18+4
 176 0048 1A70     		strb	r2, [r3]
 103:.\BLEApplication.c ****         
 177              		.loc 1 103 0
 178 004a A7E0     		b	.L1
 179              	.L6:
 109:.\BLEApplication.c ****             {
 180              		.loc 1 109 0
 181 004c 574B     		ldr	r3, .L18+8
 182 004e 1B78     		ldrb	r3, [r3]
 183 0050 042B     		cmp	r3, #4
 184 0052 03D1     		bne	.L14
 111:.\BLEApplication.c ****             }
ARM GAS  C:\Users\Ecapable\AppData\Local\Temp\cc12s5fi.s 			page 8


 185              		.loc 1 111 0
 186 0054 534B     		ldr	r3, .L18
 187 0056 0122     		mov	r2, #1
 188 0058 1A70     		strb	r2, [r3]
 113:.\BLEApplication.c **** 			
 189              		.loc 1 113 0
 190 005a 9FE0     		b	.L1
 191              	.L14:
 192 005c 9EE0     		b	.L1
 193              	.L3:
 116:.\BLEApplication.c ****         break;
 194              		.loc 1 116 0
 195 005e 514B     		ldr	r3, .L18
 196 0060 0122     		mov	r2, #1
 197 0062 1A70     		strb	r2, [r3]
 117:.\BLEApplication.c **** 
 198              		.loc 1 117 0
 199 0064 9AE0     		b	.L1
 200              	.L10:
 123:.\BLEApplication.c **** 			
 201              		.loc 1 123 0
 202 0066 524A     		ldr	r2, .L18+12
 203 0068 3B68     		ldr	r3, [r7]
 204 006a 111C     		mov	r1, r2
 205 006c 1A1C     		mov	r2, r3
 206 006e 0223     		mov	r3, #2
 207 0070 081C     		mov	r0, r1
 208 0072 111C     		mov	r1, r2
 209 0074 1A1C     		mov	r2, r3
 210 0076 FFF7FEFF 		bl	memcpy
 125:.\BLEApplication.c ****             ChangePowerPinDriveMode = FALSE; //Clear change power pin drive mode flag
 211              		.loc 1 125 0
 212 007a 4E4B     		ldr	r3, .L18+16
 213 007c 0122     		mov	r2, #1
 214 007e 1A70     		strb	r2, [r3]
 126:.\BLEApplication.c ****         break;
 215              		.loc 1 126 0
 216 0080 4D4B     		ldr	r3, .L18+20
 217 0082 0022     		mov	r2, #0
 218 0084 1A70     		strb	r2, [r3]
 127:.\BLEApplication.c **** 			
 219              		.loc 1 127 0
 220 0086 89E0     		b	.L1
 221              	.L8:
 130:.\BLEApplication.c ****             TemperatureNotificationEnabled = FALSE; //Clear the temperature notification flag
 222              		.loc 1 130 0
 223 0088 4A4B     		ldr	r3, .L18+16
 224 008a 0022     		mov	r2, #0
 225 008c 1A70     		strb	r2, [r3]
 131:.\BLEApplication.c ****             PressureNotificationEnabled =  FALSE; //Clear the pressure notification flag
 226              		.loc 1 131 0
 227 008e 4B4B     		ldr	r3, .L18+24
 228 0090 0022     		mov	r2, #0
 229 0092 1A70     		strb	r2, [r3]
 132:.\BLEApplication.c ****             AltitudeNotificationEnabled = FALSE; //Clear the altitude notification flag
 230              		.loc 1 132 0
 231 0094 4A4B     		ldr	r3, .L18+28
ARM GAS  C:\Users\Ecapable\AppData\Local\Temp\cc12s5fi.s 			page 9


 232 0096 0022     		mov	r2, #0
 233 0098 1A70     		strb	r2, [r3]
 133:.\BLEApplication.c ****             UpdateTemperatureNotificationAttribute = TRUE; //Clear the update temperature notificat
 234              		.loc 1 133 0
 235 009a 4A4B     		ldr	r3, .L18+32
 236 009c 0022     		mov	r2, #0
 237 009e 1A70     		strb	r2, [r3]
 134:.\BLEApplication.c ****             UpdatePressureNotificationAttribute = TRUE; //Clear the update pressure notification fl
 238              		.loc 1 134 0
 239 00a0 494B     		ldr	r3, .L18+36
 240 00a2 0122     		mov	r2, #1
 241 00a4 1A70     		strb	r2, [r3]
 135:.\BLEApplication.c ****             UpdateAltitudeNotificationAttribute = TRUE; //Clear the update altitude notification fl
 242              		.loc 1 135 0
 243 00a6 494B     		ldr	r3, .L18+40
 244 00a8 0122     		mov	r2, #1
 245 00aa 1A70     		strb	r2, [r3]
 136:.\BLEApplication.c ****             /* Clear temperature notification data */
 246              		.loc 1 136 0
 247 00ac 484B     		ldr	r3, .L18+44
 248 00ae 0122     		mov	r2, #1
 249 00b0 1A70     		strb	r2, [r3]
 138:.\BLEApplication.c ****             /* Clear pressure notification data */
 250              		.loc 1 138 0
 251 00b2 484B     		ldr	r3, .L18+48
 252 00b4 0022     		mov	r2, #0
 253 00b6 1A70     		strb	r2, [r3]
 254 00b8 464B     		ldr	r3, .L18+48
 255 00ba 1A78     		ldrb	r2, [r3]
 256 00bc 454B     		ldr	r3, .L18+48
 257 00be 5A70     		strb	r2, [r3, #1]
 258 00c0 444B     		ldr	r3, .L18+48
 259 00c2 5A78     		ldrb	r2, [r3, #1]
 260 00c4 434B     		ldr	r3, .L18+48
 261 00c6 9A70     		strb	r2, [r3, #2]
 262 00c8 424B     		ldr	r3, .L18+48
 263 00ca 9A78     		ldrb	r2, [r3, #2]
 264 00cc 414B     		ldr	r3, .L18+48
 265 00ce DA70     		strb	r2, [r3, #3]
 140:.\BLEApplication.c ****             /* Clear altitude notification data */
 266              		.loc 1 140 0
 267 00d0 414B     		ldr	r3, .L18+52
 268 00d2 0022     		mov	r2, #0
 269 00d4 1A70     		strb	r2, [r3]
 270 00d6 404B     		ldr	r3, .L18+52
 271 00d8 1A78     		ldrb	r2, [r3]
 272 00da 3F4B     		ldr	r3, .L18+52
 273 00dc 5A70     		strb	r2, [r3, #1]
 274 00de 3E4B     		ldr	r3, .L18+52
 275 00e0 5A78     		ldrb	r2, [r3, #1]
 276 00e2 3D4B     		ldr	r3, .L18+52
 277 00e4 9A70     		strb	r2, [r3, #2]
 278 00e6 3C4B     		ldr	r3, .L18+52
 279 00e8 9A78     		ldrb	r2, [r3, #2]
 280 00ea 3B4B     		ldr	r3, .L18+52
 281 00ec DA70     		strb	r2, [r3, #3]
 142:.\BLEApplication.c ****             LastTemperatureData = ZERO; //Clear last stored temperature notification data
ARM GAS  C:\Users\Ecapable\AppData\Local\Temp\cc12s5fi.s 			page 10


 282              		.loc 1 142 0
 283 00ee 3B4B     		ldr	r3, .L18+56
 284 00f0 0022     		mov	r2, #0
 285 00f2 1A70     		strb	r2, [r3]
 286 00f4 394B     		ldr	r3, .L18+56
 287 00f6 1A78     		ldrb	r2, [r3]
 288 00f8 384B     		ldr	r3, .L18+56
 289 00fa 5A70     		strb	r2, [r3, #1]
 290 00fc 374B     		ldr	r3, .L18+56
 291 00fe 5A78     		ldrb	r2, [r3, #1]
 292 0100 364B     		ldr	r3, .L18+56
 293 0102 9A70     		strb	r2, [r3, #2]
 294 0104 354B     		ldr	r3, .L18+56
 295 0106 9A78     		ldrb	r2, [r3, #2]
 296 0108 344B     		ldr	r3, .L18+56
 297 010a DA70     		strb	r2, [r3, #3]
 143:.\BLEApplication.c ****             LastPressureData = ZERO; //Clear last stored pressure notification data
 298              		.loc 1 143 0
 299 010c 344B     		ldr	r3, .L18+60
 300 010e 0022     		mov	r2, #0
 301 0110 1A60     		str	r2, [r3]
 144:.\BLEApplication.c ****             LastAltitudeData = ZERO; //Clear last stored altitude notification data
 302              		.loc 1 144 0
 303 0112 344B     		ldr	r3, .L18+64
 304 0114 0022     		mov	r2, #0
 305 0116 1A60     		str	r2, [r3]
 145:.\BLEApplication.c ****             ChangePowerPinDriveMode = TRUE; //Set change power pin drive mode flag
 306              		.loc 1 145 0
 307 0118 334B     		ldr	r3, .L18+68
 308 011a 0022     		mov	r2, #0
 309 011c 1A60     		str	r2, [r3]
 146:.\BLEApplication.c ****             ConnectionParametersUpdateRequired = TRUE; //Set the Connection Parameters Update flag
 310              		.loc 1 146 0
 311 011e 264B     		ldr	r3, .L18+20
 312 0120 0122     		mov	r2, #1
 313 0122 1A70     		strb	r2, [r3]
 147:.\BLEApplication.c ****             UpdateNotificationCCCDAttribute(); //Update the CCCD writing by the Central device
 314              		.loc 1 147 0
 315 0124 314B     		ldr	r3, .L18+72
 316 0126 0122     		mov	r2, #1
 317 0128 1A70     		strb	r2, [r3]
 148:.\BLEApplication.c **** 		break;
 318              		.loc 1 148 0
 319 012a FFF7FEFF 		bl	UpdateNotificationCCCDAttribute
 149:.\BLEApplication.c ****             
 320              		.loc 1 149 0
 321 012e 35E0     		b	.L1
 322              	.L11:
 153:.\BLEApplication.c **** 			
 323              		.loc 1 153 0
 324 0130 2F4B     		ldr	r3, .L18+76
 325 0132 3A68     		ldr	r2, [r7]
 326 0134 1A60     		str	r2, [r3]
 156:.\BLEApplication.c ****             {
 327              		.loc 1 156 0
 328 0136 2E4B     		ldr	r3, .L18+76
 329 0138 1B68     		ldr	r3, [r3]
ARM GAS  C:\Users\Ecapable\AppData\Local\Temp\cc12s5fi.s 			page 11


 330 013a 9B89     		ldrh	r3, [r3, #12]
 331 013c 0F2B     		cmp	r3, #15
 332 013e 08D1     		bne	.L15
 159:.\BLEApplication.c ****                 
 333              		.loc 1 159 0
 334 0140 2B4B     		ldr	r3, .L18+76
 335 0142 1B68     		ldr	r3, [r3]
 336 0144 5B68     		ldr	r3, [r3, #4]
 337 0146 1A78     		ldrb	r2, [r3]
 338 0148 1C4B     		ldr	r3, .L18+24
 339 014a 1A70     		strb	r2, [r3]
 161:.\BLEApplication.c ****             }
 340              		.loc 1 161 0
 341 014c 1E4B     		ldr	r3, .L18+36
 342 014e 0122     		mov	r2, #1
 343 0150 1A70     		strb	r2, [r3]
 344              	.L15:
 165:.\BLEApplication.c ****             {
 345              		.loc 1 165 0
 346 0152 274B     		ldr	r3, .L18+76
 347 0154 1B68     		ldr	r3, [r3]
 348 0156 9B89     		ldrh	r3, [r3, #12]
 349 0158 132B     		cmp	r3, #19
 350 015a 08D1     		bne	.L16
 168:.\BLEApplication.c ****                 
 351              		.loc 1 168 0
 352 015c 244B     		ldr	r3, .L18+76
 353 015e 1B68     		ldr	r3, [r3]
 354 0160 5B68     		ldr	r3, [r3, #4]
 355 0162 1A78     		ldrb	r2, [r3]
 356 0164 164B     		ldr	r3, .L18+28
 357 0166 1A70     		strb	r2, [r3]
 170:.\BLEApplication.c ****             }
 358              		.loc 1 170 0
 359 0168 184B     		ldr	r3, .L18+40
 360 016a 0122     		mov	r2, #1
 361 016c 1A70     		strb	r2, [r3]
 362              	.L16:
 174:.\BLEApplication.c ****             {
 363              		.loc 1 174 0
 364 016e 204B     		ldr	r3, .L18+76
 365 0170 1B68     		ldr	r3, [r3]
 366 0172 9B89     		ldrh	r3, [r3, #12]
 367 0174 172B     		cmp	r3, #23
 368 0176 08D1     		bne	.L17
 177:.\BLEApplication.c ****                 
 369              		.loc 1 177 0
 370 0178 1D4B     		ldr	r3, .L18+76
 371 017a 1B68     		ldr	r3, [r3]
 372 017c 5B68     		ldr	r3, [r3, #4]
 373 017e 1A78     		ldrb	r2, [r3]
 374 0180 104B     		ldr	r3, .L18+32
 375 0182 1A70     		strb	r2, [r3]
 179:.\BLEApplication.c ****             }
 376              		.loc 1 179 0
 377 0184 124B     		ldr	r3, .L18+44
 378 0186 0122     		mov	r2, #1
ARM GAS  C:\Users\Ecapable\AppData\Local\Temp\cc12s5fi.s 			page 12


 379 0188 1A70     		strb	r2, [r3]
 380              	.L17:
 183:.\BLEApplication.c ****         break;
 381              		.loc 1 183 0
 382 018a 094B     		ldr	r3, .L18+12
 383 018c 1868     		ldr	r0, [r3]
 384 018e FFF7FEFF 		bl	CyBle_GattsWriteRsp
 184:.\BLEApplication.c ****             
 385              		.loc 1 184 0
 386 0192 03E0     		b	.L1
 387              	.L12:
 191:.\BLEApplication.c ****         break;
 388              		.loc 1 191 0
 389 0194 154B     		ldr	r3, .L18+72
 390 0196 0022     		mov	r2, #0
 391 0198 1A70     		strb	r2, [r3]
 192:.\BLEApplication.c **** 			
 392              		.loc 1 192 0
 393 019a C046     		mov	r8, r8
 394              	.L1:
 196:.\BLEApplication.c **** 	}
 197:.\BLEApplication.c **** }
 395              		.loc 1 197 0
 396 019c BD46     		mov	sp, r7
 397 019e 02B0     		add	sp, sp, #8
 398              		@ sp needed
 399 01a0 80BD     		pop	{r7, pc}
 400              	.L19:
 401 01a2 C046     		.align	2
 402              	.L18:
 403 01a4 00000000 		.word	StartAdvertisement
 404 01a8 00000000 		.word	BLEStackStatus
 405 01ac 00000000 		.word	cyBle_state
 406 01b0 0C000000 		.word	ConnectionHandle
 407 01b4 00000000 		.word	DeviceConnected
 408 01b8 00000000 		.word	ChangePowerPinDriveMode
 409 01bc 00000000 		.word	TemperatureNotificationEnabled
 410 01c0 00000000 		.word	PressureNotificationEnabled
 411 01c4 00000000 		.word	AltitudeNotificationEnabled
 412 01c8 00000000 		.word	UpdateTemperatureNotificationAttribute
 413 01cc 00000000 		.word	UpdatePressureNotificationAttribute
 414 01d0 00000000 		.word	UpdateAltitudeNotificationAttribute
 415 01d4 00000000 		.word	TemperatureNotificationData
 416 01d8 00000000 		.word	PressureNotificationData
 417 01dc 00000000 		.word	AltitudeNotificationData
 418 01e0 00000000 		.word	LastTemperatureData
 419 01e4 00000000 		.word	LastPressureData
 420 01e8 00000000 		.word	LastAltitudeData
 421 01ec 00000000 		.word	ConnectionParametersUpdateRequired
 422 01f0 10000000 		.word	WriteRequestedParameter
 423              		.cfi_endproc
 424              	.LFE37:
 425              		.size	CustomEventHandler, .-CustomEventHandler
 426              		.section	.text.SendTemperatureOverNotification,"ax",%progbits
 427              		.align	2
 428              		.global	SendTemperatureOverNotification
 429              		.code	16
ARM GAS  C:\Users\Ecapable\AppData\Local\Temp\cc12s5fi.s 			page 13


 430              		.thumb_func
 431              		.type	SendTemperatureOverNotification, %function
 432              	SendTemperatureOverNotification:
 433              	.LFB38:
 198:.\BLEApplication.c **** /**************************************************************************************************
 199:.\BLEApplication.c **** 
 200:.\BLEApplication.c **** /**************************************************************************************************
 201:.\BLEApplication.c **** * Function Name: SendTemperatureOverNotification
 202:.\BLEApplication.c **** ***************************************************************************************************
 203:.\BLEApplication.c **** * Summary: This function sends the temperature data as BLE notification.
 204:.\BLEApplication.c **** * It updates the notification handle with temperature data and triggers the BLE component to send n
 205:.\BLEApplication.c **** *
 206:.\BLEApplication.c **** * Parameters:
 207:.\BLEApplication.c **** *  void
 208:.\BLEApplication.c **** *
 209:.\BLEApplication.c **** * Return:
 210:.\BLEApplication.c **** *  void
 211:.\BLEApplication.c **** *
 212:.\BLEApplication.c **** ***************************************************************************************************
 213:.\BLEApplication.c **** void SendTemperatureOverNotification(void)
 214:.\BLEApplication.c **** {
 434              		.loc 1 214 0
 435              		.cfi_startproc
 436 0000 80B5     		push	{r7, lr}
 437              		.cfi_def_cfa_offset 8
 438              		.cfi_offset 7, -8
 439              		.cfi_offset 14, -4
 440 0002 00AF     		add	r7, sp, #0
 441              		.cfi_def_cfa_register 7
 215:.\BLEApplication.c **** 	/* If stack is not busy, then send the notification */
 216:.\BLEApplication.c ****     if(BLEStackStatus == CYBLE_STACK_STATE_FREE)
 442              		.loc 1 216 0
 443 0004 0A4B     		ldr	r3, .L22
 444 0006 1B78     		ldrb	r3, [r3]
 445 0008 002B     		cmp	r3, #0
 446 000a 0ED1     		bne	.L20
 217:.\BLEApplication.c ****     {
 218:.\BLEApplication.c ****         /* Update notification handle with temperature data */
 219:.\BLEApplication.c ****     	TemperatureNotificationHandle.attrHandle = CYBLE_BMP180_TEMPERATURE_CHAR_HANDLE;
 447              		.loc 1 219 0
 448 000c 094B     		ldr	r3, .L22+4
 449 000e 0E22     		mov	r2, #14
 450 0010 1A81     		strh	r2, [r3, #8]
 220:.\BLEApplication.c ****     	TemperatureNotificationHandle.value.val = TemperatureNotificationData;
 451              		.loc 1 220 0
 452 0012 084B     		ldr	r3, .L22+4
 453 0014 084A     		ldr	r2, .L22+8
 454 0016 1A60     		str	r2, [r3]
 221:.\BLEApplication.c ****     	TemperatureNotificationHandle.value.len = sizeof(TemperatureNotificationData);
 455              		.loc 1 221 0
 456 0018 064B     		ldr	r3, .L22+4
 457 001a 0422     		mov	r2, #4
 458 001c 9A80     		strh	r2, [r3, #4]
 222:.\BLEApplication.c ****     	
 223:.\BLEApplication.c ****     	/* Send the updated handle as part of attribute for notifications */
 224:.\BLEApplication.c ****     	CyBle_GattsNotification(ConnectionHandle, &TemperatureNotificationHandle);
 459              		.loc 1 224 0
ARM GAS  C:\Users\Ecapable\AppData\Local\Temp\cc12s5fi.s 			page 14


 460 001e 074B     		ldr	r3, .L22+12
 461 0020 044A     		ldr	r2, .L22+4
 462 0022 1868     		ldr	r0, [r3]
 463 0024 111C     		mov	r1, r2
 464 0026 FFF7FEFF 		bl	CyBle_GattsNotification
 465              	.L20:
 225:.\BLEApplication.c ****     }
 226:.\BLEApplication.c **** }
 466              		.loc 1 226 0
 467 002a BD46     		mov	sp, r7
 468              		@ sp needed
 469 002c 80BD     		pop	{r7, pc}
 470              	.L23:
 471 002e C046     		.align	2
 472              	.L22:
 473 0030 00000000 		.word	BLEStackStatus
 474 0034 14000000 		.word	TemperatureNotificationHandle
 475 0038 00000000 		.word	TemperatureNotificationData
 476 003c 0C000000 		.word	ConnectionHandle
 477              		.cfi_endproc
 478              	.LFE38:
 479              		.size	SendTemperatureOverNotification, .-SendTemperatureOverNotification
 480              		.section	.text.SendPressureOverNotification,"ax",%progbits
 481              		.align	2
 482              		.global	SendPressureOverNotification
 483              		.code	16
 484              		.thumb_func
 485              		.type	SendPressureOverNotification, %function
 486              	SendPressureOverNotification:
 487              	.LFB39:
 227:.\BLEApplication.c **** /**************************************************************************************************
 228:.\BLEApplication.c **** 
 229:.\BLEApplication.c **** /**************************************************************************************************
 230:.\BLEApplication.c **** * Function Name: SendPressureOverNotification
 231:.\BLEApplication.c **** ***************************************************************************************************
 232:.\BLEApplication.c **** * Summary: This function sends the pressure data as BLE notification.
 233:.\BLEApplication.c **** * It updates the notification handle with pressure data and triggers the BLE component to send noti
 234:.\BLEApplication.c **** *
 235:.\BLEApplication.c **** * Parameters:
 236:.\BLEApplication.c **** *  void
 237:.\BLEApplication.c **** *
 238:.\BLEApplication.c **** * Return:
 239:.\BLEApplication.c **** *  void
 240:.\BLEApplication.c **** *
 241:.\BLEApplication.c **** ***************************************************************************************************
 242:.\BLEApplication.c **** void SendPressureOverNotification(void)
 243:.\BLEApplication.c **** {
 488              		.loc 1 243 0
 489              		.cfi_startproc
 490 0000 80B5     		push	{r7, lr}
 491              		.cfi_def_cfa_offset 8
 492              		.cfi_offset 7, -8
 493              		.cfi_offset 14, -4
 494 0002 00AF     		add	r7, sp, #0
 495              		.cfi_def_cfa_register 7
 244:.\BLEApplication.c **** 	/* If stack is not busy, then send the notification */
 245:.\BLEApplication.c ****     if(BLEStackStatus == CYBLE_STACK_STATE_FREE)
ARM GAS  C:\Users\Ecapable\AppData\Local\Temp\cc12s5fi.s 			page 15


 496              		.loc 1 245 0
 497 0004 0A4B     		ldr	r3, .L26
 498 0006 1B78     		ldrb	r3, [r3]
 499 0008 002B     		cmp	r3, #0
 500 000a 0ED1     		bne	.L24
 246:.\BLEApplication.c ****     {
 247:.\BLEApplication.c ****         /* Update notification handle with pressure data */
 248:.\BLEApplication.c ****     	PressureNotificationHandle.attrHandle = CYBLE_BMP180_PRESSURE_CHAR_HANDLE;
 501              		.loc 1 248 0
 502 000c 094B     		ldr	r3, .L26+4
 503 000e 1222     		mov	r2, #18
 504 0010 1A81     		strh	r2, [r3, #8]
 249:.\BLEApplication.c ****     	PressureNotificationHandle.value.val = PressureNotificationData;
 505              		.loc 1 249 0
 506 0012 084B     		ldr	r3, .L26+4
 507 0014 084A     		ldr	r2, .L26+8
 508 0016 1A60     		str	r2, [r3]
 250:.\BLEApplication.c ****     	PressureNotificationHandle.value.len = sizeof(PressureNotificationData);
 509              		.loc 1 250 0
 510 0018 064B     		ldr	r3, .L26+4
 511 001a 0422     		mov	r2, #4
 512 001c 9A80     		strh	r2, [r3, #4]
 251:.\BLEApplication.c ****     	
 252:.\BLEApplication.c ****     	/* Send the updated handle as part of attribute for notifications */
 253:.\BLEApplication.c ****     	CyBle_GattsNotification(ConnectionHandle, &PressureNotificationHandle);
 513              		.loc 1 253 0
 514 001e 074B     		ldr	r3, .L26+12
 515 0020 044A     		ldr	r2, .L26+4
 516 0022 1868     		ldr	r0, [r3]
 517 0024 111C     		mov	r1, r2
 518 0026 FFF7FEFF 		bl	CyBle_GattsNotification
 519              	.L24:
 254:.\BLEApplication.c ****     }
 255:.\BLEApplication.c **** }
 520              		.loc 1 255 0
 521 002a BD46     		mov	sp, r7
 522              		@ sp needed
 523 002c 80BD     		pop	{r7, pc}
 524              	.L27:
 525 002e C046     		.align	2
 526              	.L26:
 527 0030 00000000 		.word	BLEStackStatus
 528 0034 20000000 		.word	PressureNotificationHandle
 529 0038 00000000 		.word	PressureNotificationData
 530 003c 0C000000 		.word	ConnectionHandle
 531              		.cfi_endproc
 532              	.LFE39:
 533              		.size	SendPressureOverNotification, .-SendPressureOverNotification
 534              		.section	.text.SendAltitudeOverNotification,"ax",%progbits
 535              		.align	2
 536              		.global	SendAltitudeOverNotification
 537              		.code	16
 538              		.thumb_func
 539              		.type	SendAltitudeOverNotification, %function
 540              	SendAltitudeOverNotification:
 541              	.LFB40:
 256:.\BLEApplication.c **** /**************************************************************************************************
ARM GAS  C:\Users\Ecapable\AppData\Local\Temp\cc12s5fi.s 			page 16


 257:.\BLEApplication.c **** 
 258:.\BLEApplication.c **** /**************************************************************************************************
 259:.\BLEApplication.c **** * Function Name: SendAltitudeOverNotification
 260:.\BLEApplication.c **** ***************************************************************************************************
 261:.\BLEApplication.c **** * Summary: This function sends the altitude data as BLE notification.
 262:.\BLEApplication.c **** * It updates the notification handle with altitude data and triggers the BLE component to send noti
 263:.\BLEApplication.c **** *
 264:.\BLEApplication.c **** * Parameters:
 265:.\BLEApplication.c **** *  void
 266:.\BLEApplication.c **** *
 267:.\BLEApplication.c **** * Return:
 268:.\BLEApplication.c **** *  void
 269:.\BLEApplication.c **** *
 270:.\BLEApplication.c **** ***************************************************************************************************
 271:.\BLEApplication.c **** void SendAltitudeOverNotification(void)
 272:.\BLEApplication.c **** {
 542              		.loc 1 272 0
 543              		.cfi_startproc
 544 0000 80B5     		push	{r7, lr}
 545              		.cfi_def_cfa_offset 8
 546              		.cfi_offset 7, -8
 547              		.cfi_offset 14, -4
 548 0002 00AF     		add	r7, sp, #0
 549              		.cfi_def_cfa_register 7
 273:.\BLEApplication.c **** 	/* If stack is not busy, then send the notification */
 274:.\BLEApplication.c ****     if(BLEStackStatus == CYBLE_STACK_STATE_FREE)
 550              		.loc 1 274 0
 551 0004 0A4B     		ldr	r3, .L30
 552 0006 1B78     		ldrb	r3, [r3]
 553 0008 002B     		cmp	r3, #0
 554 000a 0ED1     		bne	.L28
 275:.\BLEApplication.c ****     {
 276:.\BLEApplication.c ****         /* Update notification handle with altitude data */
 277:.\BLEApplication.c ****     	AltitudeNotificationHandle.attrHandle = CYBLE_BMP180_ALTITUDE_CHAR_HANDLE;
 555              		.loc 1 277 0
 556 000c 094B     		ldr	r3, .L30+4
 557 000e 1622     		mov	r2, #22
 558 0010 1A81     		strh	r2, [r3, #8]
 278:.\BLEApplication.c ****     	AltitudeNotificationHandle.value.val = AltitudeNotificationData;
 559              		.loc 1 278 0
 560 0012 084B     		ldr	r3, .L30+4
 561 0014 084A     		ldr	r2, .L30+8
 562 0016 1A60     		str	r2, [r3]
 279:.\BLEApplication.c ****     	AltitudeNotificationHandle.value.len = sizeof(AltitudeNotificationData);
 563              		.loc 1 279 0
 564 0018 064B     		ldr	r3, .L30+4
 565 001a 0422     		mov	r2, #4
 566 001c 9A80     		strh	r2, [r3, #4]
 280:.\BLEApplication.c ****     	
 281:.\BLEApplication.c ****     	/* Send the updated handle as part of attribute for notifications */
 282:.\BLEApplication.c ****     	CyBle_GattsNotification(ConnectionHandle, &AltitudeNotificationHandle);
 567              		.loc 1 282 0
 568 001e 074B     		ldr	r3, .L30+12
 569 0020 044A     		ldr	r2, .L30+4
 570 0022 1868     		ldr	r0, [r3]
 571 0024 111C     		mov	r1, r2
 572 0026 FFF7FEFF 		bl	CyBle_GattsNotification
ARM GAS  C:\Users\Ecapable\AppData\Local\Temp\cc12s5fi.s 			page 17


 573              	.L28:
 283:.\BLEApplication.c ****     }
 284:.\BLEApplication.c **** }
 574              		.loc 1 284 0
 575 002a BD46     		mov	sp, r7
 576              		@ sp needed
 577 002c 80BD     		pop	{r7, pc}
 578              	.L31:
 579 002e C046     		.align	2
 580              	.L30:
 581 0030 00000000 		.word	BLEStackStatus
 582 0034 2C000000 		.word	AltitudeNotificationHandle
 583 0038 00000000 		.word	AltitudeNotificationData
 584 003c 0C000000 		.word	ConnectionHandle
 585              		.cfi_endproc
 586              	.LFE40:
 587              		.size	SendAltitudeOverNotification, .-SendAltitudeOverNotification
 588              		.section	.text.UpdateNotificationCCCDAttribute,"ax",%progbits
 589              		.align	2
 590              		.global	UpdateNotificationCCCDAttribute
 591              		.code	16
 592              		.thumb_func
 593              		.type	UpdateNotificationCCCDAttribute, %function
 594              	UpdateNotificationCCCDAttribute:
 595              	.LFB41:
 285:.\BLEApplication.c **** /**************************************************************************************************
 286:.\BLEApplication.c **** 
 287:.\BLEApplication.c **** /**************************************************************************************************
 288:.\BLEApplication.c **** * Function Name: UpdateNotificationCCCDAttribute
 289:.\BLEApplication.c **** ***************************************************************************************************
 290:.\BLEApplication.c **** * Summary: This function updates the notification handle status and reports 
 291:.\BLEApplication.c **** * it to BLE component database so that it can be read by Central device.
 292:.\BLEApplication.c **** *
 293:.\BLEApplication.c **** * Parameters:
 294:.\BLEApplication.c **** *  void
 295:.\BLEApplication.c **** *
 296:.\BLEApplication.c **** * Return:
 297:.\BLEApplication.c **** *  void
 298:.\BLEApplication.c **** *
 299:.\BLEApplication.c **** ***************************************************************************************************
 300:.\BLEApplication.c **** void UpdateNotificationCCCDAttribute(void)
 301:.\BLEApplication.c **** {
 596              		.loc 1 301 0
 597              		.cfi_startproc
 598 0000 80B5     		push	{r7, lr}
 599              		.cfi_def_cfa_offset 8
 600              		.cfi_offset 7, -8
 601              		.cfi_offset 14, -4
 602 0002 00AF     		add	r7, sp, #0
 603              		.cfi_def_cfa_register 7
 302:.\BLEApplication.c **** 	/* Update notification attribute only when there is change in temperature CCCD */
 303:.\BLEApplication.c ****     if(UpdateTemperatureNotificationAttribute)
 604              		.loc 1 303 0
 605 0004 2F4B     		ldr	r3, .L36
 606 0006 1B78     		ldrb	r3, [r3]
 607 0008 002B     		cmp	r3, #0
 608 000a 1AD0     		beq	.L33
ARM GAS  C:\Users\Ecapable\AppData\Local\Temp\cc12s5fi.s 			page 18


 304:.\BLEApplication.c ****     {
 305:.\BLEApplication.c ****         UpdateTemperatureNotificationAttribute = FALSE; //Clear the flag
 609              		.loc 1 305 0
 610 000c 2D4B     		ldr	r3, .L36
 611 000e 0022     		mov	r2, #0
 612 0010 1A70     		strb	r2, [r3]
 306:.\BLEApplication.c ****         
 307:.\BLEApplication.c ****         /* Write the current temperature notification status to the local variable */
 308:.\BLEApplication.c ****         TemperatureNotificationCCCDValue[0x00] = TemperatureNotificationEnabled;
 613              		.loc 1 308 0
 614 0012 2D4B     		ldr	r3, .L36+4
 615 0014 1A78     		ldrb	r2, [r3]
 616 0016 2D4B     		ldr	r3, .L36+8
 617 0018 1A70     		strb	r2, [r3]
 309:.\BLEApplication.c ****         TemperatureNotificationCCCDValue[0x01] = ZERO;
 618              		.loc 1 309 0
 619 001a 2C4B     		ldr	r3, .L36+8
 620 001c 0022     		mov	r2, #0
 621 001e 5A70     		strb	r2, [r3, #1]
 310:.\BLEApplication.c ****         
 311:.\BLEApplication.c ****         /* Update CCCD handle with notification status data */
 312:.\BLEApplication.c ****     	TemperatureNotificationCCCDHandle.attrHandle = CYBLE_BMP180_TEMPERATURE_CLIENT_CHARACTERISTIC_
 622              		.loc 1 312 0
 623 0020 2B4B     		ldr	r3, .L36+12
 624 0022 0F22     		mov	r2, #15
 625 0024 1A81     		strh	r2, [r3, #8]
 313:.\BLEApplication.c ****     	TemperatureNotificationCCCDHandle.value.val = TemperatureNotificationCCCDValue;
 626              		.loc 1 313 0
 627 0026 2A4B     		ldr	r3, .L36+12
 628 0028 284A     		ldr	r2, .L36+8
 629 002a 1A60     		str	r2, [r3]
 314:.\BLEApplication.c ****     	TemperatureNotificationCCCDHandle.value.len = sizeof(TemperatureNotificationCCCDValue);
 630              		.loc 1 314 0
 631 002c 284B     		ldr	r3, .L36+12
 632 002e 0222     		mov	r2, #2
 633 0030 9A80     		strh	r2, [r3, #4]
 315:.\BLEApplication.c ****     	
 316:.\BLEApplication.c ****     	/* Send the updated handle as part of attribute for notifications */
 317:.\BLEApplication.c ****     	CyBle_GattsWriteAttributeValue(&TemperatureNotificationCCCDHandle, 0x00, &ConnectionHandle, CY
 634              		.loc 1 317 0
 635 0032 274A     		ldr	r2, .L36+12
 636 0034 274B     		ldr	r3, .L36+16
 637 0036 101C     		mov	r0, r2
 638 0038 0021     		mov	r1, #0
 639 003a 1A1C     		mov	r2, r3
 640 003c 0023     		mov	r3, #0
 641 003e FFF7FEFF 		bl	CyBle_GattsWriteAttributeValue
 642              	.L33:
 318:.\BLEApplication.c ****     }
 319:.\BLEApplication.c ****     
 320:.\BLEApplication.c ****     /* Update notification attribute only when there is change in pressure CCCD */
 321:.\BLEApplication.c ****     if(UpdatePressureNotificationAttribute)
 643              		.loc 1 321 0
 644 0042 254B     		ldr	r3, .L36+20
 645 0044 1B78     		ldrb	r3, [r3]
 646 0046 002B     		cmp	r3, #0
 647 0048 1AD0     		beq	.L34
ARM GAS  C:\Users\Ecapable\AppData\Local\Temp\cc12s5fi.s 			page 19


 322:.\BLEApplication.c ****     {
 323:.\BLEApplication.c ****         UpdatePressureNotificationAttribute = FALSE; //Clear the flag
 648              		.loc 1 323 0
 649 004a 234B     		ldr	r3, .L36+20
 650 004c 0022     		mov	r2, #0
 651 004e 1A70     		strb	r2, [r3]
 324:.\BLEApplication.c ****         
 325:.\BLEApplication.c ****         /* Write the current pressure notification status to the local variable */
 326:.\BLEApplication.c ****         PressureNotificationCCCDValue[0x00] = PressureNotificationEnabled;
 652              		.loc 1 326 0
 653 0050 224B     		ldr	r3, .L36+24
 654 0052 1A78     		ldrb	r2, [r3]
 655 0054 224B     		ldr	r3, .L36+28
 656 0056 1A70     		strb	r2, [r3]
 327:.\BLEApplication.c ****         PressureNotificationCCCDValue[0x01] = ZERO;
 657              		.loc 1 327 0
 658 0058 214B     		ldr	r3, .L36+28
 659 005a 0022     		mov	r2, #0
 660 005c 5A70     		strb	r2, [r3, #1]
 328:.\BLEApplication.c ****         
 329:.\BLEApplication.c ****         /* Update CCCD handle with notification status data */
 330:.\BLEApplication.c ****     	PressureNotificationCCCDHandle.attrHandle = CYBLE_BMP180_PRESSURE_CLIENT_CHARACTERISTIC_CONFIG
 661              		.loc 1 330 0
 662 005e 214B     		ldr	r3, .L36+32
 663 0060 1322     		mov	r2, #19
 664 0062 1A81     		strh	r2, [r3, #8]
 331:.\BLEApplication.c ****     	PressureNotificationCCCDHandle.value.val = PressureNotificationCCCDValue;
 665              		.loc 1 331 0
 666 0064 1F4B     		ldr	r3, .L36+32
 667 0066 1E4A     		ldr	r2, .L36+28
 668 0068 1A60     		str	r2, [r3]
 332:.\BLEApplication.c ****     	PressureNotificationCCCDHandle.value.len = sizeof(PressureNotificationCCCDValue);
 669              		.loc 1 332 0
 670 006a 1E4B     		ldr	r3, .L36+32
 671 006c 0222     		mov	r2, #2
 672 006e 9A80     		strh	r2, [r3, #4]
 333:.\BLEApplication.c ****     	
 334:.\BLEApplication.c ****     	/* Send the updated handle as part of attribute for notifications */
 335:.\BLEApplication.c ****     	CyBle_GattsWriteAttributeValue(&PressureNotificationCCCDHandle, 0x00, &ConnectionHandle, CYBLE
 673              		.loc 1 335 0
 674 0070 1C4A     		ldr	r2, .L36+32
 675 0072 184B     		ldr	r3, .L36+16
 676 0074 101C     		mov	r0, r2
 677 0076 0021     		mov	r1, #0
 678 0078 1A1C     		mov	r2, r3
 679 007a 0023     		mov	r3, #0
 680 007c FFF7FEFF 		bl	CyBle_GattsWriteAttributeValue
 681              	.L34:
 336:.\BLEApplication.c ****     }
 337:.\BLEApplication.c ****     
 338:.\BLEApplication.c ****     /* Update notification attribute only when there is change in altitude CCCD */
 339:.\BLEApplication.c ****     if(UpdateAltitudeNotificationAttribute)
 682              		.loc 1 339 0
 683 0080 194B     		ldr	r3, .L36+36
 684 0082 1B78     		ldrb	r3, [r3]
 685 0084 002B     		cmp	r3, #0
 686 0086 1AD0     		beq	.L32
ARM GAS  C:\Users\Ecapable\AppData\Local\Temp\cc12s5fi.s 			page 20


 340:.\BLEApplication.c ****     {
 341:.\BLEApplication.c ****         UpdateAltitudeNotificationAttribute = FALSE; //Clear the flag
 687              		.loc 1 341 0
 688 0088 174B     		ldr	r3, .L36+36
 689 008a 0022     		mov	r2, #0
 690 008c 1A70     		strb	r2, [r3]
 342:.\BLEApplication.c ****         
 343:.\BLEApplication.c ****         /* Write the current altitude notification status to the local variable */
 344:.\BLEApplication.c ****         AltitudeNotificationCCCDValue[0x00] = AltitudeNotificationEnabled;
 691              		.loc 1 344 0
 692 008e 174B     		ldr	r3, .L36+40
 693 0090 1A78     		ldrb	r2, [r3]
 694 0092 174B     		ldr	r3, .L36+44
 695 0094 1A70     		strb	r2, [r3]
 345:.\BLEApplication.c ****         AltitudeNotificationCCCDValue[0x01] = ZERO;
 696              		.loc 1 345 0
 697 0096 164B     		ldr	r3, .L36+44
 698 0098 0022     		mov	r2, #0
 699 009a 5A70     		strb	r2, [r3, #1]
 346:.\BLEApplication.c ****         
 347:.\BLEApplication.c ****         /* Update CCCD handle with notification status data */
 348:.\BLEApplication.c ****     	AltitudeNotificationCCCDHandle.attrHandle = CYBLE_BMP180_ALTITUDE_CLIENT_CHARACTERISTIC_CONFIG
 700              		.loc 1 348 0
 701 009c 154B     		ldr	r3, .L36+48
 702 009e 1722     		mov	r2, #23
 703 00a0 1A81     		strh	r2, [r3, #8]
 349:.\BLEApplication.c ****     	AltitudeNotificationCCCDHandle.value.val = AltitudeNotificationCCCDValue;
 704              		.loc 1 349 0
 705 00a2 144B     		ldr	r3, .L36+48
 706 00a4 124A     		ldr	r2, .L36+44
 707 00a6 1A60     		str	r2, [r3]
 350:.\BLEApplication.c ****     	AltitudeNotificationCCCDHandle.value.len = sizeof(AltitudeNotificationCCCDValue);
 708              		.loc 1 350 0
 709 00a8 124B     		ldr	r3, .L36+48
 710 00aa 0222     		mov	r2, #2
 711 00ac 9A80     		strh	r2, [r3, #4]
 351:.\BLEApplication.c ****     	
 352:.\BLEApplication.c ****     	/* Send the updated handle as part of attribute for notifications */
 353:.\BLEApplication.c ****     	CyBle_GattsWriteAttributeValue(&AltitudeNotificationCCCDHandle, 0x00, &ConnectionHandle, CYBLE
 712              		.loc 1 353 0
 713 00ae 114A     		ldr	r2, .L36+48
 714 00b0 084B     		ldr	r3, .L36+16
 715 00b2 101C     		mov	r0, r2
 716 00b4 0021     		mov	r1, #0
 717 00b6 1A1C     		mov	r2, r3
 718 00b8 0023     		mov	r3, #0
 719 00ba FFF7FEFF 		bl	CyBle_GattsWriteAttributeValue
 720              	.L32:
 354:.\BLEApplication.c ****     }
 355:.\BLEApplication.c **** }
 721              		.loc 1 355 0
 722 00be BD46     		mov	sp, r7
 723              		@ sp needed
 724 00c0 80BD     		pop	{r7, pc}
 725              	.L37:
 726 00c2 C046     		.align	2
 727              	.L36:
ARM GAS  C:\Users\Ecapable\AppData\Local\Temp\cc12s5fi.s 			page 21


 728 00c4 00000000 		.word	UpdateTemperatureNotificationAttribute
 729 00c8 00000000 		.word	TemperatureNotificationEnabled
 730 00cc 00000000 		.word	TemperatureNotificationCCCDValue
 731 00d0 38000000 		.word	TemperatureNotificationCCCDHandle
 732 00d4 0C000000 		.word	ConnectionHandle
 733 00d8 00000000 		.word	UpdatePressureNotificationAttribute
 734 00dc 00000000 		.word	PressureNotificationEnabled
 735 00e0 00000000 		.word	PressureNotificationCCCDValue
 736 00e4 44000000 		.word	PressureNotificationCCCDHandle
 737 00e8 00000000 		.word	UpdateAltitudeNotificationAttribute
 738 00ec 00000000 		.word	AltitudeNotificationEnabled
 739 00f0 00000000 		.word	AltitudeNotificationCCCDValue
 740 00f4 50000000 		.word	AltitudeNotificationCCCDHandle
 741              		.cfi_endproc
 742              	.LFE41:
 743              		.size	UpdateNotificationCCCDAttribute, .-UpdateNotificationCCCDAttribute
 744              		.section	.text.UpdateConnectionParameters,"ax",%progbits
 745              		.align	2
 746              		.global	UpdateConnectionParameters
 747              		.code	16
 748              		.thumb_func
 749              		.type	UpdateConnectionParameters, %function
 750              	UpdateConnectionParameters:
 751              	.LFB42:
 356:.\BLEApplication.c **** /**************************************************************************************************
 357:.\BLEApplication.c **** 
 358:.\BLEApplication.c **** /**************************************************************************************************
 359:.\BLEApplication.c **** * Function Name: UpdateConnectionParameters
 360:.\BLEApplication.c **** ***************************************************************************************************
 361:.\BLEApplication.c **** * Summary: This function sends the Connection Parameters Update Request to the Central device
 362:.\BLEApplication.c **** * immediately after connected and modifies the connection interval for low power operation.
 363:.\BLEApplication.c **** * The Central device can accept or reject this request based on the Central device configuration.
 364:.\BLEApplication.c **** *
 365:.\BLEApplication.c **** * Parameters:
 366:.\BLEApplication.c **** *  void
 367:.\BLEApplication.c **** *
 368:.\BLEApplication.c **** * Return:
 369:.\BLEApplication.c **** *  void
 370:.\BLEApplication.c **** *
 371:.\BLEApplication.c **** ***************************************************************************************************
 372:.\BLEApplication.c **** void UpdateConnectionParameters(void)
 373:.\BLEApplication.c **** {
 752              		.loc 1 373 0
 753              		.cfi_startproc
 754 0000 80B5     		push	{r7, lr}
 755              		.cfi_def_cfa_offset 8
 756              		.cfi_offset 7, -8
 757              		.cfi_offset 14, -4
 758 0002 00AF     		add	r7, sp, #0
 759              		.cfi_def_cfa_register 7
 374:.\BLEApplication.c ****     if(DeviceConnected && ConnectionParametersUpdateRequired)
 760              		.loc 1 374 0
 761 0004 094B     		ldr	r3, .L40
 762 0006 1B78     		ldrb	r3, [r3]
 763 0008 002B     		cmp	r3, #0
 764 000a 0DD0     		beq	.L38
 765              		.loc 1 374 0 is_stmt 0 discriminator 1
ARM GAS  C:\Users\Ecapable\AppData\Local\Temp\cc12s5fi.s 			page 22


 766 000c 084B     		ldr	r3, .L40+4
 767 000e 1B78     		ldrb	r3, [r3]
 768 0010 002B     		cmp	r3, #0
 769 0012 09D0     		beq	.L38
 375:.\BLEApplication.c ****     {
 376:.\BLEApplication.c ****         ConnectionParametersUpdateRequired = FALSE; //Clear the Connection Parameters Update flag
 770              		.loc 1 376 0 is_stmt 1
 771 0014 064B     		ldr	r3, .L40+4
 772 0016 0022     		mov	r2, #0
 773 0018 1A70     		strb	r2, [r3]
 377:.\BLEApplication.c ****         /* Send Connection Parameter Update request with desired parameter values */
 378:.\BLEApplication.c ****         CyBle_L2capLeConnectionParamUpdateRequest(ConnectionHandle.bdHandle, &ConnectionParametersH
 774              		.loc 1 378 0
 775 001a 064B     		ldr	r3, .L40+8
 776 001c 1A78     		ldrb	r2, [r3]
 777 001e 064B     		ldr	r3, .L40+12
 778 0020 101C     		mov	r0, r2
 779 0022 191C     		mov	r1, r3
 780 0024 FFF7FEFF 		bl	CyBle_L2capLeConnectionParamUpdateRequest
 781              	.L38:
 379:.\BLEApplication.c ****     }
 380:.\BLEApplication.c **** }
 782              		.loc 1 380 0
 783 0028 BD46     		mov	sp, r7
 784              		@ sp needed
 785 002a 80BD     		pop	{r7, pc}
 786              	.L41:
 787              		.align	2
 788              	.L40:
 789 002c 00000000 		.word	DeviceConnected
 790 0030 00000000 		.word	ConnectionParametersUpdateRequired
 791 0034 0C000000 		.word	ConnectionHandle
 792 0038 04000000 		.word	ConnectionParametersHandle
 793              		.cfi_endproc
 794              	.LFE42:
 795              		.size	UpdateConnectionParameters, .-UpdateConnectionParameters
 796              		.text
 797              	.Letext0:
 798              		.file 2 "Generated_Source\\PSoC4/cytypes.h"
 799              		.file 3 "Generated_Source\\PSoC4/BLE_StackGap.h"
 800              		.file 4 "Generated_Source\\PSoC4/BLE_StackGatt.h"
 801              		.file 5 "Generated_Source\\PSoC4/BLE_StackGattServer.h"
 802              		.file 6 "Generated_Source\\PSoC4/BLE_Stack.h"
 803              		.file 7 "Generated_Source\\PSoC4/BLE_eventHandler.h"