ARM GAS  C:\Users\Ecapable\AppData\Local\Temp\ccWGdrt6.s 			page 1


   1              		.cpu cortex-m0
   2              		.fpu softvfp
   3              		.eabi_attribute 20, 1
   4              		.eabi_attribute 21, 1
   5              		.eabi_attribute 23, 3
   6              		.eabi_attribute 24, 1
   7              		.eabi_attribute 25, 1
   8              		.eabi_attribute 26, 1
   9              		.eabi_attribute 30, 6
  10              		.eabi_attribute 34, 0
  11              		.eabi_attribute 18, 4
  12              		.code	16
  13              		.file	"I2CMaster.c"
  14              		.text
  15              	.Ltext0:
  16              		.cfi_sections	.debug_frame
  17              		.comm	SensorCalibrationData,22,4
  18              		.comm	X1,4,4
  19              		.comm	X2,4,4
  20              		.comm	X3,4,4
  21              		.comm	B3,4,4
  22              		.comm	B5,4,4
  23              		.comm	B6,4,4
  24              		.comm	UT,4,4
  25              		.comm	UP,4,4
  26              		.comm	B4,4,4
  27              		.comm	B7,4,4
  28              		.comm	AC1,2,2
  29              		.comm	AC2,2,2
  30              		.comm	AC3,2,2
  31              		.comm	B1,2,2
  32              		.comm	B2,2,2
  33              		.comm	MC,2,2
  34              		.comm	MD,2,2
  35              		.comm	AC4,2,2
  36              		.comm	AC5,2,2
  37              		.comm	AC6,2,2
  38              		.comm	Temperature,4,4
  39              		.comm	Pressure,4,4
  40              		.comm	Altitude,4,4
  41              		.global	PressureAtSeaLevel
  42              		.data
  43              		.align	3
  44              		.type	PressureAtSeaLevel, %object
  45              		.size	PressureAtSeaLevel, 8
  46              	PressureAtSeaLevel:
  47 0000 00000000 		.word	0
  48 0004 D0BCF840 		.word	1090043088
  49              		.global	CalibrationDataAvailable
  50              		.bss
  51              		.type	CalibrationDataAvailable, %object
  52              		.size	CalibrationDataAvailable, 1
  53              	CalibrationDataAvailable:
  54 0000 00       		.space	1
  55              		.section	.text.ReadSensorCalibrationData,"ax",%progbits
  56              		.align	2
  57              		.global	ReadSensorCalibrationData
ARM GAS  C:\Users\Ecapable\AppData\Local\Temp\ccWGdrt6.s 			page 2


  58              		.code	16
  59              		.thumb_func
  60              		.type	ReadSensorCalibrationData, %function
  61              	ReadSensorCalibrationData:
  62              	.LFB37:
  63              		.file 1 ".\\I2CMaster.c"
   1:.\I2CMaster.c **** /**************************************************************************************************
   2:.\I2CMaster.c **** * Project Name		: PSoC_4_BLE_Pressure_Sensor
   3:.\I2CMaster.c **** * File Name			: I2CMaster.c
   4:.\I2CMaster.c **** * Version 			: 1.0
   5:.\I2CMaster.c **** * Device Used		: CY8C4247LQI-BL483
   6:.\I2CMaster.c **** * Software Used		: PSoC Creator 3.1
   7:.\I2CMaster.c **** * Compiler    		: ARM GCC 4.8.4
   8:.\I2CMaster.c **** * Related Hardware	: CY8CKIT-042-BLE Bluetooth Low Energy Pioneer Kit
   9:.\I2CMaster.c **** ***************************************************************************************************
  10:.\I2CMaster.c **** 
  11:.\I2CMaster.c **** /**************************************************************************************************
  12:.\I2CMaster.c **** * Copyright (2015), Cypress Semiconductor Corporation. All Rights Reserved.
  13:.\I2CMaster.c **** ***************************************************************************************************
  14:.\I2CMaster.c **** * This software, including source code, documentation and related materials
  15:.\I2CMaster.c **** * ("Software") is owned by Cypress Semiconductor Corporation (Cypress) and is
  16:.\I2CMaster.c **** * protected by and subject to worldwide patent protection (United States and 
  17:.\I2CMaster.c **** * foreign), United States copyright laws and international treaty provisions. 
  18:.\I2CMaster.c **** * Cypress hereby grants to licensee a personal, non-exclusive, non-transferable
  19:.\I2CMaster.c **** * license to copy, use, modify, create derivative works of, and compile the 
  20:.\I2CMaster.c **** * Cypress source code and derivative works for the sole purpose of creating 
  21:.\I2CMaster.c **** * custom software in support of licensee product, such licensee product to be
  22:.\I2CMaster.c **** * used only in conjunction with Cypress's integrated circuit as specified in the
  23:.\I2CMaster.c **** * applicable agreement. Any reproduction, modification, translation, compilation,
  24:.\I2CMaster.c **** * or representation of this Software except as specified above is prohibited 
  25:.\I2CMaster.c **** * without the express written permission of Cypress.
  26:.\I2CMaster.c **** * 
  27:.\I2CMaster.c **** * Disclaimer: THIS SOFTWARE IS PROVIDED AS-IS, WITH NO WARRANTY OF ANY KIND, 
  28:.\I2CMaster.c **** * EXPRESS OR IMPLIED, INCLUDING, BUT NOT LIMITED TO, NONINFRINGEMENT, IMPLIED 
  29:.\I2CMaster.c **** * WARRANTIES OF MERCHANTABILITY AND FITNESS FOR A PARTICULAR PURPOSE.
  30:.\I2CMaster.c **** * Cypress reserves the right to make changes to the Software without notice. 
  31:.\I2CMaster.c **** * Cypress does not assume any liability arising out of the application or use
  32:.\I2CMaster.c **** * of Software or any product or circuit described in the Software. Cypress does
  33:.\I2CMaster.c **** * not authorize its products for use as critical components in any products 
  34:.\I2CMaster.c **** * where a malfunction or failure may reasonably be expected to result in 
  35:.\I2CMaster.c **** * significant injury or death ("ACTIVE Risk Product"). By including Cypress's 
  36:.\I2CMaster.c **** * product in a ACTIVE Risk Product, the manufacturer of such system or application
  37:.\I2CMaster.c **** * assumes all risk of such use and in doing so indemnifies Cypress against all
  38:.\I2CMaster.c **** * liability. Use of this Software may be limited by and subject to the applicable
  39:.\I2CMaster.c **** * Cypress software license agreement.
  40:.\I2CMaster.c **** ***************************************************************************************************
  41:.\I2CMaster.c **** 
  42:.\I2CMaster.c **** #include <I2CMaster.h>
  43:.\I2CMaster.c **** 
  44:.\I2CMaster.c **** /*************************Variables Declaration****************************************************
  45:.\I2CMaster.c **** uint8 SensorCalibrationData[0x16]; //Calibration data is stored in this array
  46:.\I2CMaster.c **** long X1, X2, X3, B3, B5, B6, UT, UP; //Variables to store calibration coefficients
  47:.\I2CMaster.c **** unsigned long B4, B7; //Variables to store calibration coefficients
  48:.\I2CMaster.c **** short AC1, AC2, AC3, B1, B2, MC, MD; //Variables to store calibration coefficients
  49:.\I2CMaster.c **** unsigned short AC4, AC5, AC6; //Variables to store calibration coefficients
  50:.\I2CMaster.c **** long UT, UP; //Variables to store uncompensated temperature and pressure data
  51:.\I2CMaster.c **** long Temperature, Pressure, Altitude; //Variables to store the true temperature, pressure and altit
ARM GAS  C:\Users\Ecapable\AppData\Local\Temp\ccWGdrt6.s 			page 3


  52:.\I2CMaster.c **** double PressureAtSeaLevel = 101325.0; //Pressure at sea level in Pascal
  53:.\I2CMaster.c **** uint8 CalibrationDataAvailable = FALSE; //This flag is to whether the calibration data is available
  54:.\I2CMaster.c **** /**************************************************************************************************
  55:.\I2CMaster.c **** 
  56:.\I2CMaster.c **** /**************************************************************************************************
  57:.\I2CMaster.c **** * Function Name: ReadSensorCalibrationData
  58:.\I2CMaster.c **** ***************************************************************************************************
  59:.\I2CMaster.c **** * Summary: This function reads the sensor calibration data over I2C and
  60:.\I2CMaster.c **** * assigns it to the appropriate sensor coefficient variables.
  61:.\I2CMaster.c **** *
  62:.\I2CMaster.c **** * Parameters:
  63:.\I2CMaster.c **** *  void
  64:.\I2CMaster.c **** *
  65:.\I2CMaster.c **** * Return:
  66:.\I2CMaster.c **** *  void
  67:.\I2CMaster.c **** *
  68:.\I2CMaster.c **** ***************************************************************************************************
  69:.\I2CMaster.c **** void ReadSensorCalibrationData(void)
  70:.\I2CMaster.c **** {
  64              		.loc 1 70 0
  65              		.cfi_startproc
  66 0000 80B5     		push	{r7, lr}
  67              		.cfi_def_cfa_offset 8
  68              		.cfi_offset 7, -8
  69              		.cfi_offset 14, -4
  70 0002 00AF     		add	r7, sp, #0
  71              		.cfi_def_cfa_register 7
  71:.\I2CMaster.c ****     static uint8 I2CWriteBuffer[0x01] = {0xAA}; //Location from which the calibration data is to be
  72:.\I2CMaster.c ****     
  73:.\I2CMaster.c ****     /* Do a write operation with the memory address bytes to get calibration data */
  74:.\I2CMaster.c **** 	I2C_I2CMasterWriteBuf(I2CSlaveAddress, (uint8 *) I2CWriteBuffer, sizeof(I2CWriteBuffer), I2C_I2C_M
  72              		.loc 1 74 0
  73 0004 4A4B     		ldr	r3, .L4
  74 0006 7720     		mov	r0, #119
  75 0008 191C     		mov	r1, r3
  76 000a 0122     		mov	r2, #1
  77 000c 0023     		mov	r3, #0
  78 000e FFF7FEFF 		bl	I2C_I2CMasterWriteBuf
  75:.\I2CMaster.c ****     while(!(I2C_I2CMasterStatus() & I2C_I2C_MSTAT_WR_CMPLT)); //Wait till the master completes writ
  79              		.loc 1 75 0
  80 0012 C046     		mov	r8, r8
  81              	.L2:
  82              		.loc 1 75 0 is_stmt 0 discriminator 1
  83 0014 FFF7FEFF 		bl	I2C_I2CMasterStatus
  84 0018 021C     		mov	r2, r0
  85 001a 0223     		mov	r3, #2
  86 001c 1340     		and	r3, r2
  87 001e F9D0     		beq	.L2
  76:.\I2CMaster.c ****     I2C_I2CMasterClearStatus(); //Clear I2C master status
  88              		.loc 1 76 0 is_stmt 1
  89 0020 FFF7FEFF 		bl	I2C_I2CMasterClearStatus
  77:.\I2CMaster.c ****     
  78:.\I2CMaster.c ****     /* Read calibration from the sensor EEPROM and store it in a buffer */
  79:.\I2CMaster.c **** 	I2C_I2CMasterReadBuf(I2CSlaveAddress, (uint8 *) SensorCalibrationData, sizeof(SensorCalibrationDat
  90              		.loc 1 79 0
  91 0024 434B     		ldr	r3, .L4+4
  92 0026 7720     		mov	r0, #119
ARM GAS  C:\Users\Ecapable\AppData\Local\Temp\ccWGdrt6.s 			page 4


  93 0028 191C     		mov	r1, r3
  94 002a 1622     		mov	r2, #22
  95 002c 0023     		mov	r3, #0
  96 002e FFF7FEFF 		bl	I2C_I2CMasterReadBuf
  80:.\I2CMaster.c ****     while(!(I2C_I2CMasterStatus() & I2C_I2C_MSTAT_RD_CMPLT)); //Wait till the master completes read
  97              		.loc 1 80 0
  98 0032 C046     		mov	r8, r8
  99              	.L3:
 100              		.loc 1 80 0 is_stmt 0 discriminator 1
 101 0034 FFF7FEFF 		bl	I2C_I2CMasterStatus
 102 0038 021C     		mov	r2, r0
 103 003a 0123     		mov	r3, #1
 104 003c 1340     		and	r3, r2
 105 003e F9D0     		beq	.L3
  81:.\I2CMaster.c ****     I2C_I2CMasterClearStatus(); //Clear I2C master status
 106              		.loc 1 81 0 is_stmt 1
 107 0040 FFF7FEFF 		bl	I2C_I2CMasterClearStatus
  82:.\I2CMaster.c ****     
  83:.\I2CMaster.c ****     CalibrationDataAvailable = TRUE; //Set sensor calibration data available flag
 108              		.loc 1 83 0
 109 0044 3C4B     		ldr	r3, .L4+8
 110 0046 0122     		mov	r2, #1
 111 0048 1A70     		strb	r2, [r3]
  84:.\I2CMaster.c ****     
  85:.\I2CMaster.c ****     /* Assign calibration data to coefficient variables as described in sensor datasheet */
  86:.\I2CMaster.c ****     AC1 = (SensorCalibrationData[0x00] << 0x08) | SensorCalibrationData[0x01];
 112              		.loc 1 86 0
 113 004a 3A4B     		ldr	r3, .L4+4
 114 004c 1B78     		ldrb	r3, [r3]
 115 004e 1B02     		lsl	r3, r3, #8
 116 0050 9AB2     		uxth	r2, r3
 117 0052 384B     		ldr	r3, .L4+4
 118 0054 5B78     		ldrb	r3, [r3, #1]
 119 0056 9BB2     		uxth	r3, r3
 120 0058 1343     		orr	r3, r2
 121 005a 9AB2     		uxth	r2, r3
 122 005c 374B     		ldr	r3, .L4+12
 123 005e 1A80     		strh	r2, [r3]
  87:.\I2CMaster.c ****     AC2 = (SensorCalibrationData[0x02] << 0x08) | SensorCalibrationData[0x03];
 124              		.loc 1 87 0
 125 0060 344B     		ldr	r3, .L4+4
 126 0062 9B78     		ldrb	r3, [r3, #2]
 127 0064 1B02     		lsl	r3, r3, #8
 128 0066 9AB2     		uxth	r2, r3
 129 0068 324B     		ldr	r3, .L4+4
 130 006a DB78     		ldrb	r3, [r3, #3]
 131 006c 9BB2     		uxth	r3, r3
 132 006e 1343     		orr	r3, r2
 133 0070 9AB2     		uxth	r2, r3
 134 0072 334B     		ldr	r3, .L4+16
 135 0074 1A80     		strh	r2, [r3]
  88:.\I2CMaster.c ****     AC3 = (SensorCalibrationData[0x04] << 0x08) | SensorCalibrationData[0x05];
 136              		.loc 1 88 0
 137 0076 2F4B     		ldr	r3, .L4+4
 138 0078 1B79     		ldrb	r3, [r3, #4]
 139 007a 1B02     		lsl	r3, r3, #8
 140 007c 9AB2     		uxth	r2, r3
ARM GAS  C:\Users\Ecapable\AppData\Local\Temp\ccWGdrt6.s 			page 5


 141 007e 2D4B     		ldr	r3, .L4+4
 142 0080 5B79     		ldrb	r3, [r3, #5]
 143 0082 9BB2     		uxth	r3, r3
 144 0084 1343     		orr	r3, r2
 145 0086 9AB2     		uxth	r2, r3
 146 0088 2E4B     		ldr	r3, .L4+20
 147 008a 1A80     		strh	r2, [r3]
  89:.\I2CMaster.c ****     AC4 = (SensorCalibrationData[0x06] << 0x08) | SensorCalibrationData[0x07];
 148              		.loc 1 89 0
 149 008c 294B     		ldr	r3, .L4+4
 150 008e 9B79     		ldrb	r3, [r3, #6]
 151 0090 1B02     		lsl	r3, r3, #8
 152 0092 9AB2     		uxth	r2, r3
 153 0094 274B     		ldr	r3, .L4+4
 154 0096 DB79     		ldrb	r3, [r3, #7]
 155 0098 9BB2     		uxth	r3, r3
 156 009a 1343     		orr	r3, r2
 157 009c 9BB2     		uxth	r3, r3
 158 009e 9AB2     		uxth	r2, r3
 159 00a0 294B     		ldr	r3, .L4+24
 160 00a2 1A80     		strh	r2, [r3]
  90:.\I2CMaster.c ****     AC5 = (SensorCalibrationData[0x08] << 0x08) | SensorCalibrationData[0x09];
 161              		.loc 1 90 0
 162 00a4 234B     		ldr	r3, .L4+4
 163 00a6 1B7A     		ldrb	r3, [r3, #8]
 164 00a8 1B02     		lsl	r3, r3, #8
 165 00aa 9AB2     		uxth	r2, r3
 166 00ac 214B     		ldr	r3, .L4+4
 167 00ae 5B7A     		ldrb	r3, [r3, #9]
 168 00b0 9BB2     		uxth	r3, r3
 169 00b2 1343     		orr	r3, r2
 170 00b4 9BB2     		uxth	r3, r3
 171 00b6 9AB2     		uxth	r2, r3
 172 00b8 244B     		ldr	r3, .L4+28
 173 00ba 1A80     		strh	r2, [r3]
  91:.\I2CMaster.c ****     AC6 = (SensorCalibrationData[0x0A] << 0x08) | SensorCalibrationData[0x0B];
 174              		.loc 1 91 0
 175 00bc 1D4B     		ldr	r3, .L4+4
 176 00be 9B7A     		ldrb	r3, [r3, #10]
 177 00c0 1B02     		lsl	r3, r3, #8
 178 00c2 9AB2     		uxth	r2, r3
 179 00c4 1B4B     		ldr	r3, .L4+4
 180 00c6 DB7A     		ldrb	r3, [r3, #11]
 181 00c8 9BB2     		uxth	r3, r3
 182 00ca 1343     		orr	r3, r2
 183 00cc 9BB2     		uxth	r3, r3
 184 00ce 9AB2     		uxth	r2, r3
 185 00d0 1F4B     		ldr	r3, .L4+32
 186 00d2 1A80     		strh	r2, [r3]
  92:.\I2CMaster.c ****     B1 = (SensorCalibrationData[0x0C] << 0x08) | SensorCalibrationData[0x0D];
 187              		.loc 1 92 0
 188 00d4 174B     		ldr	r3, .L4+4
 189 00d6 1B7B     		ldrb	r3, [r3, #12]
 190 00d8 1B02     		lsl	r3, r3, #8
 191 00da 9AB2     		uxth	r2, r3
 192 00dc 154B     		ldr	r3, .L4+4
 193 00de 5B7B     		ldrb	r3, [r3, #13]
ARM GAS  C:\Users\Ecapable\AppData\Local\Temp\ccWGdrt6.s 			page 6


 194 00e0 9BB2     		uxth	r3, r3
 195 00e2 1343     		orr	r3, r2
 196 00e4 9AB2     		uxth	r2, r3
 197 00e6 1B4B     		ldr	r3, .L4+36
 198 00e8 1A80     		strh	r2, [r3]
  93:.\I2CMaster.c ****     B2 = (SensorCalibrationData[0x0E] << 0x08) | SensorCalibrationData[0x0F];
 199              		.loc 1 93 0
 200 00ea 124B     		ldr	r3, .L4+4
 201 00ec 9B7B     		ldrb	r3, [r3, #14]
 202 00ee 1B02     		lsl	r3, r3, #8
 203 00f0 9AB2     		uxth	r2, r3
 204 00f2 104B     		ldr	r3, .L4+4
 205 00f4 DB7B     		ldrb	r3, [r3, #15]
 206 00f6 9BB2     		uxth	r3, r3
 207 00f8 1343     		orr	r3, r2
 208 00fa 9AB2     		uxth	r2, r3
 209 00fc 164B     		ldr	r3, .L4+40
 210 00fe 1A80     		strh	r2, [r3]
  94:.\I2CMaster.c ****     MC = (SensorCalibrationData[0x012] << 0x08) | SensorCalibrationData[0x013];
 211              		.loc 1 94 0
 212 0100 0C4B     		ldr	r3, .L4+4
 213 0102 9B7C     		ldrb	r3, [r3, #18]
 214 0104 1B02     		lsl	r3, r3, #8
 215 0106 9AB2     		uxth	r2, r3
 216 0108 0A4B     		ldr	r3, .L4+4
 217 010a DB7C     		ldrb	r3, [r3, #19]
 218 010c 9BB2     		uxth	r3, r3
 219 010e 1343     		orr	r3, r2
 220 0110 9AB2     		uxth	r2, r3
 221 0112 124B     		ldr	r3, .L4+44
 222 0114 1A80     		strh	r2, [r3]
  95:.\I2CMaster.c ****     MD = (SensorCalibrationData[0x014] << 0x08) | SensorCalibrationData[0x015];
 223              		.loc 1 95 0
 224 0116 074B     		ldr	r3, .L4+4
 225 0118 1B7D     		ldrb	r3, [r3, #20]
 226 011a 1B02     		lsl	r3, r3, #8
 227 011c 9AB2     		uxth	r2, r3
 228 011e 054B     		ldr	r3, .L4+4
 229 0120 5B7D     		ldrb	r3, [r3, #21]
 230 0122 9BB2     		uxth	r3, r3
 231 0124 1343     		orr	r3, r2
 232 0126 9AB2     		uxth	r2, r3
 233 0128 0D4B     		ldr	r3, .L4+48
 234 012a 1A80     		strh	r2, [r3]
  96:.\I2CMaster.c **** }
 235              		.loc 1 96 0
 236 012c BD46     		mov	sp, r7
 237              		@ sp needed
 238 012e 80BD     		pop	{r7, pc}
 239              	.L5:
 240              		.align	2
 241              	.L4:
 242 0130 08000000 		.word	I2CWriteBuffer.7455
 243 0134 00000000 		.word	SensorCalibrationData
 244 0138 00000000 		.word	CalibrationDataAvailable
 245 013c 00000000 		.word	AC1
 246 0140 00000000 		.word	AC2
ARM GAS  C:\Users\Ecapable\AppData\Local\Temp\ccWGdrt6.s 			page 7


 247 0144 00000000 		.word	AC3
 248 0148 00000000 		.word	AC4
 249 014c 00000000 		.word	AC5
 250 0150 00000000 		.word	AC6
 251 0154 00000000 		.word	B1
 252 0158 00000000 		.word	B2
 253 015c 00000000 		.word	MC
 254 0160 00000000 		.word	MD
 255              		.cfi_endproc
 256              	.LFE37:
 257              		.size	ReadSensorCalibrationData, .-ReadSensorCalibrationData
 258              		.section	.text.ReadUncompensatedTemperature,"ax",%progbits
 259              		.align	2
 260              		.global	ReadUncompensatedTemperature
 261              		.code	16
 262              		.thumb_func
 263              		.type	ReadUncompensatedTemperature, %function
 264              	ReadUncompensatedTemperature:
 265              	.LFB38:
  97:.\I2CMaster.c **** /**************************************************************************************************
  98:.\I2CMaster.c **** 
  99:.\I2CMaster.c **** /**************************************************************************************************
 100:.\I2CMaster.c **** * Function Name: ReadUncompensatedTemperature
 101:.\I2CMaster.c **** ***************************************************************************************************
 102:.\I2CMaster.c **** * Summary: This function writes the temperature conversion command to the sensor and
 103:.\I2CMaster.c **** * waits for conversion to complete, and then reads the converted data (uncompensated temperature) a
 104:.\I2CMaster.c **** *
 105:.\I2CMaster.c **** * Parameters:
 106:.\I2CMaster.c **** *  void
 107:.\I2CMaster.c **** *
 108:.\I2CMaster.c **** * Return:
 109:.\I2CMaster.c **** *  void
 110:.\I2CMaster.c **** *
 111:.\I2CMaster.c **** ***************************************************************************************************
 112:.\I2CMaster.c **** void ReadUncompensatedTemperature(void)
 113:.\I2CMaster.c **** {
 266              		.loc 1 113 0
 267              		.cfi_startproc
 268 0000 80B5     		push	{r7, lr}
 269              		.cfi_def_cfa_offset 8
 270              		.cfi_offset 7, -8
 271              		.cfi_offset 14, -4
 272 0002 00AF     		add	r7, sp, #0
 273              		.cfi_def_cfa_register 7
 114:.\I2CMaster.c ****     static uint8 I2CReadBuffer[0x02]; //The uncompensated temperature read from the sensor is store
 115:.\I2CMaster.c ****     static uint8 I2CWriteBuffer[0x02] = {0xF4, 0x2E}; //Command for temperature conversion - Regist
 116:.\I2CMaster.c ****     static uint8 SetReadAddressBuffer[0x01] = {0xF6}; //Register address from which the data is rea
 117:.\I2CMaster.c ****     
 118:.\I2CMaster.c ****     /* Do a write operation with the memory address bytes to get temperature data */
 119:.\I2CMaster.c **** 	I2C_I2CMasterWriteBuf(I2CSlaveAddress, (uint8 *) I2CWriteBuffer, sizeof(I2CWriteBuffer), I2C_I2C_M
 274              		.loc 1 119 0
 275 0004 1E4B     		ldr	r3, .L10
 276 0006 7720     		mov	r0, #119
 277 0008 191C     		mov	r1, r3
 278 000a 0222     		mov	r2, #2
 279 000c 0023     		mov	r3, #0
 280 000e FFF7FEFF 		bl	I2C_I2CMasterWriteBuf
ARM GAS  C:\Users\Ecapable\AppData\Local\Temp\ccWGdrt6.s 			page 8


 120:.\I2CMaster.c ****     while(!(I2C_I2CMasterStatus() & I2C_I2C_MSTAT_WR_CMPLT)); //Wait till the master completes writ
 281              		.loc 1 120 0
 282 0012 C046     		mov	r8, r8
 283              	.L7:
 284              		.loc 1 120 0 is_stmt 0 discriminator 1
 285 0014 FFF7FEFF 		bl	I2C_I2CMasterStatus
 286 0018 021C     		mov	r2, r0
 287 001a 0223     		mov	r3, #2
 288 001c 1340     		and	r3, r2
 289 001e F9D0     		beq	.L7
 121:.\I2CMaster.c ****     I2C_I2CMasterClearStatus(); //Clear I2C master status
 290              		.loc 1 121 0 is_stmt 1
 291 0020 FFF7FEFF 		bl	I2C_I2CMasterClearStatus
 122:.\I2CMaster.c ****     
 123:.\I2CMaster.c ****     CyDelay(5); //Wait for 5ms temperature conversion
 292              		.loc 1 123 0
 293 0024 0520     		mov	r0, #5
 294 0026 FFF7FEFF 		bl	CyDelay
 124:.\I2CMaster.c ****     
 125:.\I2CMaster.c ****     /* In order to do a read from a specific address, do a write operation with the memory address 
 126:.\I2CMaster.c **** 	I2C_I2CMasterWriteBuf(I2CSlaveAddress, (uint8 *) SetReadAddressBuffer, sizeof(SetReadAddressBuffer
 295              		.loc 1 126 0
 296 002a 164B     		ldr	r3, .L10+4
 297 002c 7720     		mov	r0, #119
 298 002e 191C     		mov	r1, r3
 299 0030 0122     		mov	r2, #1
 300 0032 0023     		mov	r3, #0
 301 0034 FFF7FEFF 		bl	I2C_I2CMasterWriteBuf
 127:.\I2CMaster.c ****     while(!(I2C_I2CMasterStatus() & I2C_I2C_MSTAT_WR_CMPLT)); //Wait till the master completes writ
 302              		.loc 1 127 0
 303 0038 C046     		mov	r8, r8
 304              	.L8:
 305              		.loc 1 127 0 is_stmt 0 discriminator 1
 306 003a FFF7FEFF 		bl	I2C_I2CMasterStatus
 307 003e 021C     		mov	r2, r0
 308 0040 0223     		mov	r3, #2
 309 0042 1340     		and	r3, r2
 310 0044 F9D0     		beq	.L8
 128:.\I2CMaster.c ****     I2C_I2CMasterClearStatus(); //Clear I2C master status
 311              		.loc 1 128 0 is_stmt 1
 312 0046 FFF7FEFF 		bl	I2C_I2CMasterClearStatus
 129:.\I2CMaster.c ****     
 130:.\I2CMaster.c ****     /* Read temperature from the sensor and store it in a buffer */
 131:.\I2CMaster.c **** 	I2C_I2CMasterReadBuf(I2CSlaveAddress, (uint8 *) I2CReadBuffer, sizeof(I2CReadBuffer), I2C_I2C_MODE
 313              		.loc 1 131 0
 314 004a 0F4B     		ldr	r3, .L10+8
 315 004c 7720     		mov	r0, #119
 316 004e 191C     		mov	r1, r3
 317 0050 0222     		mov	r2, #2
 318 0052 0023     		mov	r3, #0
 319 0054 FFF7FEFF 		bl	I2C_I2CMasterReadBuf
 132:.\I2CMaster.c ****     while(!(I2C_I2CMasterStatus() & I2C_I2C_MSTAT_RD_CMPLT)); //Wait till the master completes read
 320              		.loc 1 132 0
 321 0058 C046     		mov	r8, r8
 322              	.L9:
 323              		.loc 1 132 0 is_stmt 0 discriminator 1
 324 005a FFF7FEFF 		bl	I2C_I2CMasterStatus
ARM GAS  C:\Users\Ecapable\AppData\Local\Temp\ccWGdrt6.s 			page 9


 325 005e 021C     		mov	r2, r0
 326 0060 0123     		mov	r3, #1
 327 0062 1340     		and	r3, r2
 328 0064 F9D0     		beq	.L9
 133:.\I2CMaster.c ****     I2C_I2CMasterClearStatus(); //Clear I2C master status
 329              		.loc 1 133 0 is_stmt 1
 330 0066 FFF7FEFF 		bl	I2C_I2CMasterClearStatus
 134:.\I2CMaster.c ****     
 135:.\I2CMaster.c **** 	UT = (I2CReadBuffer[0x00] << 0x08) | I2CReadBuffer[0x01]; //Return uncompensated temperature value
 331              		.loc 1 135 0
 332 006a 074B     		ldr	r3, .L10+8
 333 006c 1B78     		ldrb	r3, [r3]
 334 006e 1B02     		lsl	r3, r3, #8
 335 0070 054A     		ldr	r2, .L10+8
 336 0072 5278     		ldrb	r2, [r2, #1]
 337 0074 1A43     		orr	r2, r3
 338 0076 054B     		ldr	r3, .L10+12
 339 0078 1A60     		str	r2, [r3]
 136:.\I2CMaster.c **** }
 340              		.loc 1 136 0
 341 007a BD46     		mov	sp, r7
 342              		@ sp needed
 343 007c 80BD     		pop	{r7, pc}
 344              	.L11:
 345 007e C046     		.align	2
 346              	.L10:
 347 0080 0C000000 		.word	I2CWriteBuffer.7466
 348 0084 10000000 		.word	SetReadAddressBuffer.7467
 349 0088 04000000 		.word	I2CReadBuffer.7465
 350 008c 00000000 		.word	UT
 351              		.cfi_endproc
 352              	.LFE38:
 353              		.size	ReadUncompensatedTemperature, .-ReadUncompensatedTemperature
 354              		.section	.text.ReadUncompensatedPressure,"ax",%progbits
 355              		.align	2
 356              		.global	ReadUncompensatedPressure
 357              		.code	16
 358              		.thumb_func
 359              		.type	ReadUncompensatedPressure, %function
 360              	ReadUncompensatedPressure:
 361              	.LFB39:
 137:.\I2CMaster.c **** /**************************************************************************************************
 138:.\I2CMaster.c **** 
 139:.\I2CMaster.c **** /**************************************************************************************************
 140:.\I2CMaster.c **** * Function Name: ReadUncompensatedPressure
 141:.\I2CMaster.c **** ***************************************************************************************************
 142:.\I2CMaster.c **** * Summary: This function writes the pressure conversion command to the sensor and
 143:.\I2CMaster.c **** * waits for conversion to complete, and then reads the converted data (uncompensated pressure) and 
 144:.\I2CMaster.c **** *
 145:.\I2CMaster.c **** * Parameters:
 146:.\I2CMaster.c **** *  void
 147:.\I2CMaster.c **** *
 148:.\I2CMaster.c **** * Return:
 149:.\I2CMaster.c **** *  void
 150:.\I2CMaster.c **** *
 151:.\I2CMaster.c **** ***************************************************************************************************
 152:.\I2CMaster.c **** void ReadUncompensatedPressure(void)
ARM GAS  C:\Users\Ecapable\AppData\Local\Temp\ccWGdrt6.s 			page 10


 153:.\I2CMaster.c **** {
 362              		.loc 1 153 0
 363              		.cfi_startproc
 364 0000 80B5     		push	{r7, lr}
 365              		.cfi_def_cfa_offset 8
 366              		.cfi_offset 7, -8
 367              		.cfi_offset 14, -4
 368 0002 00AF     		add	r7, sp, #0
 369              		.cfi_def_cfa_register 7
 154:.\I2CMaster.c ****     static uint8 I2CReadBuffer[0x03]; //The uncompensated pressure read from the sensor is stored h
 155:.\I2CMaster.c ****     static uint8 I2CWriteBuffer[0x02] = {0xF4, 0x34 + (OSS << 0x06)}; //Command for pressure conver
 156:.\I2CMaster.c ****     static uint8 SetReadAddressBuffer[0x01] = {0xF6}; //Register address from which the data is rea
 157:.\I2CMaster.c ****     
 158:.\I2CMaster.c ****     /* Do a write operation with the memory address bytes to get pressure data */
 159:.\I2CMaster.c **** 	I2C_I2CMasterWriteBuf(I2CSlaveAddress, (uint8 *) I2CWriteBuffer, sizeof(I2CWriteBuffer), I2C_I2C_M
 370              		.loc 1 159 0
 371 0004 204B     		ldr	r3, .L16
 372 0006 7720     		mov	r0, #119
 373 0008 191C     		mov	r1, r3
 374 000a 0222     		mov	r2, #2
 375 000c 0023     		mov	r3, #0
 376 000e FFF7FEFF 		bl	I2C_I2CMasterWriteBuf
 160:.\I2CMaster.c ****     while(!(I2C_I2CMasterStatus() & I2C_I2C_MSTAT_WR_CMPLT)); //Wait till the master completes writ
 377              		.loc 1 160 0
 378 0012 C046     		mov	r8, r8
 379              	.L13:
 380              		.loc 1 160 0 is_stmt 0 discriminator 1
 381 0014 FFF7FEFF 		bl	I2C_I2CMasterStatus
 382 0018 021C     		mov	r2, r0
 383 001a 0223     		mov	r3, #2
 384 001c 1340     		and	r3, r2
 385 001e F9D0     		beq	.L13
 161:.\I2CMaster.c ****     I2C_I2CMasterClearStatus(); //Clear I2C master status
 386              		.loc 1 161 0 is_stmt 1
 387 0020 FFF7FEFF 		bl	I2C_I2CMasterClearStatus
 162:.\I2CMaster.c ****     
 163:.\I2CMaster.c ****     CyDelay(26); //Wait for 26ms pressure conversion
 388              		.loc 1 163 0
 389 0024 1A20     		mov	r0, #26
 390 0026 FFF7FEFF 		bl	CyDelay
 164:.\I2CMaster.c ****     
 165:.\I2CMaster.c ****     /* In order to do a read from a specific address, do a write operation with the memory address 
 166:.\I2CMaster.c **** 	I2C_I2CMasterWriteBuf(I2CSlaveAddress, (uint8 *) SetReadAddressBuffer, sizeof(SetReadAddressBuffer
 391              		.loc 1 166 0
 392 002a 184B     		ldr	r3, .L16+4
 393 002c 7720     		mov	r0, #119
 394 002e 191C     		mov	r1, r3
 395 0030 0122     		mov	r2, #1
 396 0032 0023     		mov	r3, #0
 397 0034 FFF7FEFF 		bl	I2C_I2CMasterWriteBuf
 167:.\I2CMaster.c ****     while(!(I2C_I2CMasterStatus() & I2C_I2C_MSTAT_WR_CMPLT)); //Wait till the master completes writ
 398              		.loc 1 167 0
 399 0038 C046     		mov	r8, r8
 400              	.L14:
 401              		.loc 1 167 0 is_stmt 0 discriminator 1
 402 003a FFF7FEFF 		bl	I2C_I2CMasterStatus
 403 003e 021C     		mov	r2, r0
ARM GAS  C:\Users\Ecapable\AppData\Local\Temp\ccWGdrt6.s 			page 11


 404 0040 0223     		mov	r3, #2
 405 0042 1340     		and	r3, r2
 406 0044 F9D0     		beq	.L14
 168:.\I2CMaster.c ****     I2C_I2CMasterClearStatus(); //Clear I2C master status
 407              		.loc 1 168 0 is_stmt 1
 408 0046 FFF7FEFF 		bl	I2C_I2CMasterClearStatus
 169:.\I2CMaster.c ****     
 170:.\I2CMaster.c ****     /* Read pressure from the sensor and store it in a buffer */
 171:.\I2CMaster.c **** 	I2C_I2CMasterReadBuf(I2CSlaveAddress, (uint8 *) I2CReadBuffer, sizeof(I2CReadBuffer), I2C_I2C_MODE
 409              		.loc 1 171 0
 410 004a 114B     		ldr	r3, .L16+8
 411 004c 7720     		mov	r0, #119
 412 004e 191C     		mov	r1, r3
 413 0050 0322     		mov	r2, #3
 414 0052 0023     		mov	r3, #0
 415 0054 FFF7FEFF 		bl	I2C_I2CMasterReadBuf
 172:.\I2CMaster.c ****     while(!(I2C_I2CMasterStatus() & I2C_I2C_MSTAT_RD_CMPLT)); //Wait till the master completes read
 416              		.loc 1 172 0
 417 0058 C046     		mov	r8, r8
 418              	.L15:
 419              		.loc 1 172 0 is_stmt 0 discriminator 1
 420 005a FFF7FEFF 		bl	I2C_I2CMasterStatus
 421 005e 021C     		mov	r2, r0
 422 0060 0123     		mov	r3, #1
 423 0062 1340     		and	r3, r2
 424 0064 F9D0     		beq	.L15
 173:.\I2CMaster.c ****     I2C_I2CMasterClearStatus(); //Clear I2C master status
 425              		.loc 1 173 0 is_stmt 1
 426 0066 FFF7FEFF 		bl	I2C_I2CMasterClearStatus
 174:.\I2CMaster.c ****     
 175:.\I2CMaster.c **** 	UP = ((I2CReadBuffer[0x00] << 0x10) | (I2CReadBuffer[0x01] << 0x08) | I2CReadBuffer[0x02]) >> (0x0
 427              		.loc 1 175 0
 428 006a 094B     		ldr	r3, .L16+8
 429 006c 1B78     		ldrb	r3, [r3]
 430 006e 1A04     		lsl	r2, r3, #16
 431 0070 074B     		ldr	r3, .L16+8
 432 0072 5B78     		ldrb	r3, [r3, #1]
 433 0074 1B02     		lsl	r3, r3, #8
 434 0076 1343     		orr	r3, r2
 435 0078 054A     		ldr	r2, .L16+8
 436 007a 9278     		ldrb	r2, [r2, #2]
 437 007c 1343     		orr	r3, r2
 438 007e 5A11     		asr	r2, r3, #5
 439 0080 044B     		ldr	r3, .L16+12
 440 0082 1A60     		str	r2, [r3]
 176:.\I2CMaster.c **** }
 441              		.loc 1 176 0
 442 0084 BD46     		mov	sp, r7
 443              		@ sp needed
 444 0086 80BD     		pop	{r7, pc}
 445              	.L17:
 446              		.align	2
 447              	.L16:
 448 0088 14000000 		.word	I2CWriteBuffer.7481
 449 008c 18000000 		.word	SetReadAddressBuffer.7482
 450 0090 08000000 		.word	I2CReadBuffer.7480
 451 0094 00000000 		.word	UP
ARM GAS  C:\Users\Ecapable\AppData\Local\Temp\ccWGdrt6.s 			page 12


 452              		.cfi_endproc
 453              	.LFE39:
 454              		.size	ReadUncompensatedPressure, .-ReadUncompensatedPressure
 455              		.global	__aeabi_i2d
 456              		.global	__aeabi_ddiv
 457              		.global	__aeabi_d2iz
 458              		.global	__aeabi_dmul
 459              		.global	__aeabi_ui2d
 460              		.global	__aeabi_d2uiz
 461              		.global	__aeabi_uidiv
 462              		.global	__aeabi_dadd
 463              		.global	__aeabi_dsub
 464              		.section	.text.ReadAndCalculateSensorData,"ax",%progbits
 465              		.align	2
 466              		.global	ReadAndCalculateSensorData
 467              		.code	16
 468              		.thumb_func
 469              		.type	ReadAndCalculateSensorData, %function
 470              	ReadAndCalculateSensorData:
 471              	.LFB40:
 177:.\I2CMaster.c **** /**************************************************************************************************
 178:.\I2CMaster.c **** 
 179:.\I2CMaster.c **** /**************************************************************************************************
 180:.\I2CMaster.c **** * Function Name: ReadCalculateSensorData
 181:.\I2CMaster.c **** ***************************************************************************************************
 182:.\I2CMaster.c **** * Summary: This function reads the uncompensated temperature and pressure value and converts it
 183:.\I2CMaster.c **** * into true temperature, pressure and altitude using the algorithm given in the sensor datasheet.
 184:.\I2CMaster.c **** *
 185:.\I2CMaster.c **** * Parameters:
 186:.\I2CMaster.c **** *  void
 187:.\I2CMaster.c **** *
 188:.\I2CMaster.c **** * Return:
 189:.\I2CMaster.c **** *  void
 190:.\I2CMaster.c **** *
 191:.\I2CMaster.c **** ***************************************************************************************************
 192:.\I2CMaster.c **** void ReadAndCalculateSensorData(void)
 193:.\I2CMaster.c **** {
 472              		.loc 1 193 0
 473              		.cfi_startproc
 474 0000 F8B5     		push	{r3, r4, r5, r6, r7, lr}
 475              		.cfi_def_cfa_offset 24
 476              		.cfi_offset 3, -24
 477              		.cfi_offset 4, -20
 478              		.cfi_offset 5, -16
 479              		.cfi_offset 6, -12
 480              		.cfi_offset 7, -8
 481              		.cfi_offset 14, -4
 482 0002 00AF     		add	r7, sp, #0
 483              		.cfi_def_cfa_register 7
 194:.\I2CMaster.c ****     /* Read the sensor calibration data if not already available */
 195:.\I2CMaster.c **** 	if(!CalibrationDataAvailable)
 484              		.loc 1 195 0
 485 0004 BB4B     		ldr	r3, .L23
 486 0006 1B78     		ldrb	r3, [r3]
 487 0008 002B     		cmp	r3, #0
 488 000a 01D1     		bne	.L19
 196:.\I2CMaster.c ****     {
ARM GAS  C:\Users\Ecapable\AppData\Local\Temp\ccWGdrt6.s 			page 13


 197:.\I2CMaster.c ****         ReadSensorCalibrationData(); //Read sensor calibration data
 489              		.loc 1 197 0
 490 000c FFF7FEFF 		bl	ReadSensorCalibrationData
 491              	.L19:
 198:.\I2CMaster.c ****     }
 199:.\I2CMaster.c ****     
 200:.\I2CMaster.c ****     ReadUncompensatedTemperature(); //Read the uncompensated temperature value
 492              		.loc 1 200 0
 493 0010 FFF7FEFF 		bl	ReadUncompensatedTemperature
 201:.\I2CMaster.c ****     ReadUncompensatedPressure(); //Read the uncompensated pressure value
 494              		.loc 1 201 0
 495 0014 FFF7FEFF 		bl	ReadUncompensatedPressure
 202:.\I2CMaster.c ****     
 203:.\I2CMaster.c ****     /* Calculate the true temperature as described in sensor datasheet */
 204:.\I2CMaster.c ****     X1 = (UT - AC6) * AC5 / pow(2, 15);
 496              		.loc 1 204 0
 497 0018 B74B     		ldr	r3, .L23+4
 498 001a 1B68     		ldr	r3, [r3]
 499 001c B74A     		ldr	r2, .L23+8
 500 001e 1288     		ldrh	r2, [r2]
 501 0020 9B1A     		sub	r3, r3, r2
 502 0022 B74A     		ldr	r2, .L23+12
 503 0024 1288     		ldrh	r2, [r2]
 504 0026 5343     		mul	r3, r2
 505 0028 181C     		mov	r0, r3
 506 002a FFF7FEFF 		bl	__aeabi_i2d
 507 002e 031C     		mov	r3, r0
 508 0030 0C1C     		mov	r4, r1
 509 0032 181C     		mov	r0, r3
 510 0034 211C     		mov	r1, r4
 511 0036 0022     		mov	r2, #0
 512 0038 B24B     		ldr	r3, .L23+16
 513 003a FFF7FEFF 		bl	__aeabi_ddiv
 514 003e 031C     		mov	r3, r0
 515 0040 0C1C     		mov	r4, r1
 516 0042 181C     		mov	r0, r3
 517 0044 211C     		mov	r1, r4
 518 0046 FFF7FEFF 		bl	__aeabi_d2iz
 519 004a 021C     		mov	r2, r0
 520 004c AE4B     		ldr	r3, .L23+20
 521 004e 1A60     		str	r2, [r3]
 205:.\I2CMaster.c ****     X2 = MC * pow(2, 11) / (X1 + MD);
 522              		.loc 1 205 0
 523 0050 AE4B     		ldr	r3, .L23+24
 524 0052 1B88     		ldrh	r3, [r3]
 525 0054 1BB2     		sxth	r3, r3
 526 0056 181C     		mov	r0, r3
 527 0058 FFF7FEFF 		bl	__aeabi_i2d
 528 005c 031C     		mov	r3, r0
 529 005e 0C1C     		mov	r4, r1
 530 0060 181C     		mov	r0, r3
 531 0062 211C     		mov	r1, r4
 532 0064 0022     		mov	r2, #0
 533 0066 AA4B     		ldr	r3, .L23+28
 534 0068 FFF7FEFF 		bl	__aeabi_dmul
 535 006c 031C     		mov	r3, r0
 536 006e 0C1C     		mov	r4, r1
ARM GAS  C:\Users\Ecapable\AppData\Local\Temp\ccWGdrt6.s 			page 14


 537 0070 1D1C     		mov	r5, r3
 538 0072 261C     		mov	r6, r4
 539 0074 A74B     		ldr	r3, .L23+32
 540 0076 1B88     		ldrh	r3, [r3]
 541 0078 1AB2     		sxth	r2, r3
 542 007a A34B     		ldr	r3, .L23+20
 543 007c 1B68     		ldr	r3, [r3]
 544 007e D318     		add	r3, r2, r3
 545 0080 181C     		mov	r0, r3
 546 0082 FFF7FEFF 		bl	__aeabi_i2d
 547 0086 031C     		mov	r3, r0
 548 0088 0C1C     		mov	r4, r1
 549 008a 281C     		mov	r0, r5
 550 008c 311C     		mov	r1, r6
 551 008e 1A1C     		mov	r2, r3
 552 0090 231C     		mov	r3, r4
 553 0092 FFF7FEFF 		bl	__aeabi_ddiv
 554 0096 031C     		mov	r3, r0
 555 0098 0C1C     		mov	r4, r1
 556 009a 181C     		mov	r0, r3
 557 009c 211C     		mov	r1, r4
 558 009e FFF7FEFF 		bl	__aeabi_d2iz
 559 00a2 021C     		mov	r2, r0
 560 00a4 9C4B     		ldr	r3, .L23+36
 561 00a6 1A60     		str	r2, [r3]
 206:.\I2CMaster.c ****     B5 = X1 + X2;
 562              		.loc 1 206 0
 563 00a8 974B     		ldr	r3, .L23+20
 564 00aa 1A68     		ldr	r2, [r3]
 565 00ac 9A4B     		ldr	r3, .L23+36
 566 00ae 1B68     		ldr	r3, [r3]
 567 00b0 D218     		add	r2, r2, r3
 568 00b2 9A4B     		ldr	r3, .L23+40
 569 00b4 1A60     		str	r2, [r3]
 207:.\I2CMaster.c ****     Temperature = (B5 + 8) / pow(2, 4);
 570              		.loc 1 207 0
 571 00b6 994B     		ldr	r3, .L23+40
 572 00b8 1B68     		ldr	r3, [r3]
 573 00ba 0833     		add	r3, r3, #8
 574 00bc 181C     		mov	r0, r3
 575 00be FFF7FEFF 		bl	__aeabi_i2d
 576 00c2 031C     		mov	r3, r0
 577 00c4 0C1C     		mov	r4, r1
 578 00c6 181C     		mov	r0, r3
 579 00c8 211C     		mov	r1, r4
 580 00ca 0022     		mov	r2, #0
 581 00cc 944B     		ldr	r3, .L23+44
 582 00ce FFF7FEFF 		bl	__aeabi_ddiv
 583 00d2 031C     		mov	r3, r0
 584 00d4 0C1C     		mov	r4, r1
 585 00d6 181C     		mov	r0, r3
 586 00d8 211C     		mov	r1, r4
 587 00da FFF7FEFF 		bl	__aeabi_d2iz
 588 00de 021C     		mov	r2, r0
 589 00e0 904B     		ldr	r3, .L23+48
 590 00e2 1A60     		str	r2, [r3]
 208:.\I2CMaster.c ****     
ARM GAS  C:\Users\Ecapable\AppData\Local\Temp\ccWGdrt6.s 			page 15


 209:.\I2CMaster.c ****     /* Calculate the true barometric pressure as described in sensor datasheet */
 210:.\I2CMaster.c ****     B6 = B5 - 4000;
 591              		.loc 1 210 0
 592 00e4 8D4B     		ldr	r3, .L23+40
 593 00e6 1B68     		ldr	r3, [r3]
 594 00e8 8F4A     		ldr	r2, .L23+52
 595 00ea 9A18     		add	r2, r3, r2
 596 00ec 8F4B     		ldr	r3, .L23+56
 597 00ee 1A60     		str	r2, [r3]
 211:.\I2CMaster.c ****     X1 = (B2 * (B6 * B6 / pow(2, 12))) / pow(2, 11);
 598              		.loc 1 211 0
 599 00f0 8F4B     		ldr	r3, .L23+60
 600 00f2 1B88     		ldrh	r3, [r3]
 601 00f4 1BB2     		sxth	r3, r3
 602 00f6 181C     		mov	r0, r3
 603 00f8 FFF7FEFF 		bl	__aeabi_i2d
 604 00fc 051C     		mov	r5, r0
 605 00fe 0E1C     		mov	r6, r1
 606 0100 8A4B     		ldr	r3, .L23+56
 607 0102 1A68     		ldr	r2, [r3]
 608 0104 894B     		ldr	r3, .L23+56
 609 0106 1B68     		ldr	r3, [r3]
 610 0108 5343     		mul	r3, r2
 611 010a 181C     		mov	r0, r3
 612 010c FFF7FEFF 		bl	__aeabi_i2d
 613 0110 031C     		mov	r3, r0
 614 0112 0C1C     		mov	r4, r1
 615 0114 181C     		mov	r0, r3
 616 0116 211C     		mov	r1, r4
 617 0118 0022     		mov	r2, #0
 618 011a 864B     		ldr	r3, .L23+64
 619 011c FFF7FEFF 		bl	__aeabi_ddiv
 620 0120 031C     		mov	r3, r0
 621 0122 0C1C     		mov	r4, r1
 622 0124 281C     		mov	r0, r5
 623 0126 311C     		mov	r1, r6
 624 0128 1A1C     		mov	r2, r3
 625 012a 231C     		mov	r3, r4
 626 012c FFF7FEFF 		bl	__aeabi_dmul
 627 0130 031C     		mov	r3, r0
 628 0132 0C1C     		mov	r4, r1
 629 0134 181C     		mov	r0, r3
 630 0136 211C     		mov	r1, r4
 631 0138 0022     		mov	r2, #0
 632 013a 754B     		ldr	r3, .L23+28
 633 013c FFF7FEFF 		bl	__aeabi_ddiv
 634 0140 031C     		mov	r3, r0
 635 0142 0C1C     		mov	r4, r1
 636 0144 181C     		mov	r0, r3
 637 0146 211C     		mov	r1, r4
 638 0148 FFF7FEFF 		bl	__aeabi_d2iz
 639 014c 021C     		mov	r2, r0
 640 014e 6E4B     		ldr	r3, .L23+20
 641 0150 1A60     		str	r2, [r3]
 212:.\I2CMaster.c ****     X2 = AC2 * B6 / pow(2, 11);
 642              		.loc 1 212 0
 643 0152 794B     		ldr	r3, .L23+68
ARM GAS  C:\Users\Ecapable\AppData\Local\Temp\ccWGdrt6.s 			page 16


 644 0154 1B88     		ldrh	r3, [r3]
 645 0156 1AB2     		sxth	r2, r3
 646 0158 744B     		ldr	r3, .L23+56
 647 015a 1B68     		ldr	r3, [r3]
 648 015c 5343     		mul	r3, r2
 649 015e 181C     		mov	r0, r3
 650 0160 FFF7FEFF 		bl	__aeabi_i2d
 651 0164 031C     		mov	r3, r0
 652 0166 0C1C     		mov	r4, r1
 653 0168 181C     		mov	r0, r3
 654 016a 211C     		mov	r1, r4
 655 016c 0022     		mov	r2, #0
 656 016e 684B     		ldr	r3, .L23+28
 657 0170 FFF7FEFF 		bl	__aeabi_ddiv
 658 0174 031C     		mov	r3, r0
 659 0176 0C1C     		mov	r4, r1
 660 0178 181C     		mov	r0, r3
 661 017a 211C     		mov	r1, r4
 662 017c FFF7FEFF 		bl	__aeabi_d2iz
 663 0180 021C     		mov	r2, r0
 664 0182 654B     		ldr	r3, .L23+36
 665 0184 1A60     		str	r2, [r3]
 213:.\I2CMaster.c ****     X3 = X1 + X2;
 666              		.loc 1 213 0
 667 0186 604B     		ldr	r3, .L23+20
 668 0188 1A68     		ldr	r2, [r3]
 669 018a 634B     		ldr	r3, .L23+36
 670 018c 1B68     		ldr	r3, [r3]
 671 018e D218     		add	r2, r2, r3
 672 0190 6A4B     		ldr	r3, .L23+72
 673 0192 1A60     		str	r2, [r3]
 214:.\I2CMaster.c ****     B3 = (((AC1 * 4 + X3) << OSS) + 2) / 4;
 674              		.loc 1 214 0
 675 0194 6A4B     		ldr	r3, .L23+76
 676 0196 1B88     		ldrh	r3, [r3]
 677 0198 1BB2     		sxth	r3, r3
 678 019a 9A00     		lsl	r2, r3, #2
 679 019c 674B     		ldr	r3, .L23+72
 680 019e 1B68     		ldr	r3, [r3]
 681 01a0 D318     		add	r3, r2, r3
 682 01a2 DB00     		lsl	r3, r3, #3
 683 01a4 0233     		add	r3, r3, #2
 684 01a6 002B     		cmp	r3, #0
 685 01a8 00DA     		bge	.L20
 686 01aa 0333     		add	r3, r3, #3
 687              	.L20:
 688 01ac 9B10     		asr	r3, r3, #2
 689 01ae 1A1C     		mov	r2, r3
 690 01b0 644B     		ldr	r3, .L23+80
 691 01b2 1A60     		str	r2, [r3]
 215:.\I2CMaster.c ****     X1 = AC3 * B6 / pow(2, 13);
 692              		.loc 1 215 0
 693 01b4 644B     		ldr	r3, .L23+84
 694 01b6 1B88     		ldrh	r3, [r3]
 695 01b8 1AB2     		sxth	r2, r3
 696 01ba 5C4B     		ldr	r3, .L23+56
 697 01bc 1B68     		ldr	r3, [r3]
ARM GAS  C:\Users\Ecapable\AppData\Local\Temp\ccWGdrt6.s 			page 17


 698 01be 5343     		mul	r3, r2
 699 01c0 181C     		mov	r0, r3
 700 01c2 FFF7FEFF 		bl	__aeabi_i2d
 701 01c6 031C     		mov	r3, r0
 702 01c8 0C1C     		mov	r4, r1
 703 01ca 181C     		mov	r0, r3
 704 01cc 211C     		mov	r1, r4
 705 01ce 0022     		mov	r2, #0
 706 01d0 5E4B     		ldr	r3, .L23+88
 707 01d2 FFF7FEFF 		bl	__aeabi_ddiv
 708 01d6 031C     		mov	r3, r0
 709 01d8 0C1C     		mov	r4, r1
 710 01da 181C     		mov	r0, r3
 711 01dc 211C     		mov	r1, r4
 712 01de FFF7FEFF 		bl	__aeabi_d2iz
 713 01e2 021C     		mov	r2, r0
 714 01e4 484B     		ldr	r3, .L23+20
 715 01e6 1A60     		str	r2, [r3]
 216:.\I2CMaster.c ****     X2 = (B1 * (B6 * B6 / pow(2, 12))) / pow(2, 16);
 716              		.loc 1 216 0
 717 01e8 594B     		ldr	r3, .L23+92
 718 01ea 1B88     		ldrh	r3, [r3]
 719 01ec 1BB2     		sxth	r3, r3
 720 01ee 181C     		mov	r0, r3
 721 01f0 FFF7FEFF 		bl	__aeabi_i2d
 722 01f4 051C     		mov	r5, r0
 723 01f6 0E1C     		mov	r6, r1
 724 01f8 4C4B     		ldr	r3, .L23+56
 725 01fa 1A68     		ldr	r2, [r3]
 726 01fc 4B4B     		ldr	r3, .L23+56
 727 01fe 1B68     		ldr	r3, [r3]
 728 0200 5343     		mul	r3, r2
 729 0202 181C     		mov	r0, r3
 730 0204 FFF7FEFF 		bl	__aeabi_i2d
 731 0208 031C     		mov	r3, r0
 732 020a 0C1C     		mov	r4, r1
 733 020c 181C     		mov	r0, r3
 734 020e 211C     		mov	r1, r4
 735 0210 0022     		mov	r2, #0
 736 0212 484B     		ldr	r3, .L23+64
 737 0214 FFF7FEFF 		bl	__aeabi_ddiv
 738 0218 031C     		mov	r3, r0
 739 021a 0C1C     		mov	r4, r1
 740 021c 281C     		mov	r0, r5
 741 021e 311C     		mov	r1, r6
 742 0220 1A1C     		mov	r2, r3
 743 0222 231C     		mov	r3, r4
 744 0224 FFF7FEFF 		bl	__aeabi_dmul
 745 0228 031C     		mov	r3, r0
 746 022a 0C1C     		mov	r4, r1
 747 022c 181C     		mov	r0, r3
 748 022e 211C     		mov	r1, r4
 749 0230 0022     		mov	r2, #0
 750 0232 484B     		ldr	r3, .L23+96
 751 0234 FFF7FEFF 		bl	__aeabi_ddiv
 752 0238 031C     		mov	r3, r0
 753 023a 0C1C     		mov	r4, r1
ARM GAS  C:\Users\Ecapable\AppData\Local\Temp\ccWGdrt6.s 			page 18


 754 023c 181C     		mov	r0, r3
 755 023e 211C     		mov	r1, r4
 756 0240 FFF7FEFF 		bl	__aeabi_d2iz
 757 0244 021C     		mov	r2, r0
 758 0246 344B     		ldr	r3, .L23+36
 759 0248 1A60     		str	r2, [r3]
 217:.\I2CMaster.c ****     X3 = ((X1 + X2) + 2) / pow(2, 2);
 760              		.loc 1 217 0
 761 024a 2F4B     		ldr	r3, .L23+20
 762 024c 1A68     		ldr	r2, [r3]
 763 024e 324B     		ldr	r3, .L23+36
 764 0250 1B68     		ldr	r3, [r3]
 765 0252 D318     		add	r3, r2, r3
 766 0254 0233     		add	r3, r3, #2
 767 0256 181C     		mov	r0, r3
 768 0258 FFF7FEFF 		bl	__aeabi_i2d
 769 025c 031C     		mov	r3, r0
 770 025e 0C1C     		mov	r4, r1
 771 0260 181C     		mov	r0, r3
 772 0262 211C     		mov	r1, r4
 773 0264 0022     		mov	r2, #0
 774 0266 3C4B     		ldr	r3, .L23+100
 775 0268 FFF7FEFF 		bl	__aeabi_ddiv
 776 026c 031C     		mov	r3, r0
 777 026e 0C1C     		mov	r4, r1
 778 0270 181C     		mov	r0, r3
 779 0272 211C     		mov	r1, r4
 780 0274 FFF7FEFF 		bl	__aeabi_d2iz
 781 0278 021C     		mov	r2, r0
 782 027a 304B     		ldr	r3, .L23+72
 783 027c 1A60     		str	r2, [r3]
 218:.\I2CMaster.c ****     B4 = (AC4 * (unsigned long)(X3 + 32768)) / pow(2, 15);
 784              		.loc 1 218 0
 785 027e 374B     		ldr	r3, .L23+104
 786 0280 1B88     		ldrh	r3, [r3]
 787 0282 1A1C     		mov	r2, r3
 788 0284 2D4B     		ldr	r3, .L23+72
 789 0286 1B68     		ldr	r3, [r3]
 790 0288 8021     		mov	r1, #128
 791 028a 0902     		lsl	r1, r1, #8
 792 028c 8C46     		mov	ip, r1
 793 028e 6344     		add	r3, r3, ip
 794 0290 5343     		mul	r3, r2
 795 0292 181C     		mov	r0, r3
 796 0294 FFF7FEFF 		bl	__aeabi_ui2d
 797 0298 031C     		mov	r3, r0
 798 029a 0C1C     		mov	r4, r1
 799 029c 181C     		mov	r0, r3
 800 029e 211C     		mov	r1, r4
 801 02a0 0022     		mov	r2, #0
 802 02a2 184B     		ldr	r3, .L23+16
 803 02a4 FFF7FEFF 		bl	__aeabi_ddiv
 804 02a8 031C     		mov	r3, r0
 805 02aa 0C1C     		mov	r4, r1
 806 02ac 181C     		mov	r0, r3
 807 02ae 211C     		mov	r1, r4
 808 02b0 FFF7FEFF 		bl	__aeabi_d2uiz
ARM GAS  C:\Users\Ecapable\AppData\Local\Temp\ccWGdrt6.s 			page 19


 809 02b4 021C     		mov	r2, r0
 810 02b6 2A4B     		ldr	r3, .L23+108
 811 02b8 1A60     		str	r2, [r3]
 219:.\I2CMaster.c ****     B7 = ((unsigned long)UP - B3) * (50000 >> OSS);
 812              		.loc 1 219 0
 813 02ba 2A4B     		ldr	r3, .L23+112
 814 02bc 1B68     		ldr	r3, [r3]
 815 02be 1A1C     		mov	r2, r3
 816 02c0 204B     		ldr	r3, .L23+80
 817 02c2 1B68     		ldr	r3, [r3]
 818 02c4 D31A     		sub	r3, r2, r3
 819 02c6 284A     		ldr	r2, .L23+116
 820 02c8 5A43     		mul	r2, r3
 821 02ca 284B     		ldr	r3, .L23+120
 822 02cc 1A60     		str	r2, [r3]
 220:.\I2CMaster.c ****     if(B7 < 0x80000000)
 823              		.loc 1 220 0
 824 02ce 274B     		ldr	r3, .L23+120
 825 02d0 1B68     		ldr	r3, [r3]
 826 02d2 002B     		cmp	r3, #0
 827 02d4 4EDB     		blt	.L21
 221:.\I2CMaster.c ****     {
 222:.\I2CMaster.c ****         Pressure = (B7 *2) / B4;
 828              		.loc 1 222 0
 829 02d6 254B     		ldr	r3, .L23+120
 830 02d8 1B68     		ldr	r3, [r3]
 831 02da 5A00     		lsl	r2, r3, #1
 832 02dc 204B     		ldr	r3, .L23+108
 833 02de 1B68     		ldr	r3, [r3]
 834 02e0 101C     		mov	r0, r2
 835 02e2 191C     		mov	r1, r3
 836 02e4 FFF7FEFF 		bl	__aeabi_uidiv
 837 02e8 031C     		mov	r3, r0
 838 02ea 1A1C     		mov	r2, r3
 839 02ec 204B     		ldr	r3, .L23+124
 840 02ee 1A60     		str	r2, [r3]
 841 02f0 4DE0     		b	.L22
 842              	.L24:
 843 02f2 C046     		.align	2
 844              	.L23:
 845 02f4 00000000 		.word	CalibrationDataAvailable
 846 02f8 00000000 		.word	UT
 847 02fc 00000000 		.word	AC6
 848 0300 00000000 		.word	AC5
 849 0304 0000E040 		.word	1088421888
 850 0308 00000000 		.word	X1
 851 030c 00000000 		.word	MC
 852 0310 0000A040 		.word	1084227584
 853 0314 00000000 		.word	MD
 854 0318 00000000 		.word	X2
 855 031c 00000000 		.word	B5
 856 0320 00003040 		.word	1076887552
 857 0324 00000000 		.word	Temperature
 858 0328 60F0FFFF 		.word	-4000
 859 032c 00000000 		.word	B6
 860 0330 00000000 		.word	B2
 861 0334 0000B040 		.word	1085276160
ARM GAS  C:\Users\Ecapable\AppData\Local\Temp\ccWGdrt6.s 			page 20


 862 0338 00000000 		.word	AC2
 863 033c 00000000 		.word	X3
 864 0340 00000000 		.word	AC1
 865 0344 00000000 		.word	B3
 866 0348 00000000 		.word	AC3
 867 034c 0000C040 		.word	1086324736
 868 0350 00000000 		.word	B1
 869 0354 0000F040 		.word	1089470464
 870 0358 00001040 		.word	1074790400
 871 035c 00000000 		.word	AC4
 872 0360 00000000 		.word	B4
 873 0364 00000000 		.word	UP
 874 0368 6A180000 		.word	6250
 875 036c 00000000 		.word	B7
 876 0370 00000000 		.word	Pressure
 877              	.L21:
 223:.\I2CMaster.c ****     }
 224:.\I2CMaster.c ****     else 
 225:.\I2CMaster.c ****     {
 226:.\I2CMaster.c ****         Pressure = (B7 / B4) *2;
 878              		.loc 1 226 0
 879 0374 664B     		ldr	r3, .L25
 880 0376 1A68     		ldr	r2, [r3]
 881 0378 664B     		ldr	r3, .L25+4
 882 037a 1B68     		ldr	r3, [r3]
 883 037c 101C     		mov	r0, r2
 884 037e 191C     		mov	r1, r3
 885 0380 FFF7FEFF 		bl	__aeabi_uidiv
 886 0384 031C     		mov	r3, r0
 887 0386 5B00     		lsl	r3, r3, #1
 888 0388 1A1C     		mov	r2, r3
 889 038a 634B     		ldr	r3, .L25+8
 890 038c 1A60     		str	r2, [r3]
 891              	.L22:
 227:.\I2CMaster.c ****     }
 228:.\I2CMaster.c ****     X1 = (Pressure / pow(2, 8)) * (Pressure / pow(2, 8));
 892              		.loc 1 228 0
 893 038e 624B     		ldr	r3, .L25+8
 894 0390 1B68     		ldr	r3, [r3]
 895 0392 181C     		mov	r0, r3
 896 0394 FFF7FEFF 		bl	__aeabi_i2d
 897 0398 031C     		mov	r3, r0
 898 039a 0C1C     		mov	r4, r1
 899 039c 181C     		mov	r0, r3
 900 039e 211C     		mov	r1, r4
 901 03a0 0022     		mov	r2, #0
 902 03a2 5E4B     		ldr	r3, .L25+12
 903 03a4 FFF7FEFF 		bl	__aeabi_ddiv
 904 03a8 031C     		mov	r3, r0
 905 03aa 0C1C     		mov	r4, r1
 906 03ac 1D1C     		mov	r5, r3
 907 03ae 261C     		mov	r6, r4
 908 03b0 594B     		ldr	r3, .L25+8
 909 03b2 1B68     		ldr	r3, [r3]
 910 03b4 181C     		mov	r0, r3
 911 03b6 FFF7FEFF 		bl	__aeabi_i2d
 912 03ba 031C     		mov	r3, r0
ARM GAS  C:\Users\Ecapable\AppData\Local\Temp\ccWGdrt6.s 			page 21


 913 03bc 0C1C     		mov	r4, r1
 914 03be 181C     		mov	r0, r3
 915 03c0 211C     		mov	r1, r4
 916 03c2 0022     		mov	r2, #0
 917 03c4 554B     		ldr	r3, .L25+12
 918 03c6 FFF7FEFF 		bl	__aeabi_ddiv
 919 03ca 031C     		mov	r3, r0
 920 03cc 0C1C     		mov	r4, r1
 921 03ce 281C     		mov	r0, r5
 922 03d0 311C     		mov	r1, r6
 923 03d2 1A1C     		mov	r2, r3
 924 03d4 231C     		mov	r3, r4
 925 03d6 FFF7FEFF 		bl	__aeabi_dmul
 926 03da 031C     		mov	r3, r0
 927 03dc 0C1C     		mov	r4, r1
 928 03de 181C     		mov	r0, r3
 929 03e0 211C     		mov	r1, r4
 930 03e2 FFF7FEFF 		bl	__aeabi_d2iz
 931 03e6 021C     		mov	r2, r0
 932 03e8 4D4B     		ldr	r3, .L25+16
 933 03ea 1A60     		str	r2, [r3]
 229:.\I2CMaster.c ****     X1 = (X1 * 3038) / pow(2, 16);
 934              		.loc 1 229 0
 935 03ec 4C4B     		ldr	r3, .L25+16
 936 03ee 1B68     		ldr	r3, [r3]
 937 03f0 4C4A     		ldr	r2, .L25+20
 938 03f2 5343     		mul	r3, r2
 939 03f4 181C     		mov	r0, r3
 940 03f6 FFF7FEFF 		bl	__aeabi_i2d
 941 03fa 031C     		mov	r3, r0
 942 03fc 0C1C     		mov	r4, r1
 943 03fe 181C     		mov	r0, r3
 944 0400 211C     		mov	r1, r4
 945 0402 0022     		mov	r2, #0
 946 0404 484B     		ldr	r3, .L25+24
 947 0406 FFF7FEFF 		bl	__aeabi_ddiv
 948 040a 031C     		mov	r3, r0
 949 040c 0C1C     		mov	r4, r1
 950 040e 181C     		mov	r0, r3
 951 0410 211C     		mov	r1, r4
 952 0412 FFF7FEFF 		bl	__aeabi_d2iz
 953 0416 021C     		mov	r2, r0
 954 0418 414B     		ldr	r3, .L25+16
 955 041a 1A60     		str	r2, [r3]
 230:.\I2CMaster.c ****     X2 = (-7357 * Pressure) / pow(2, 16);
 956              		.loc 1 230 0
 957 041c 3E4B     		ldr	r3, .L25+8
 958 041e 1B68     		ldr	r3, [r3]
 959 0420 424A     		ldr	r2, .L25+28
 960 0422 5343     		mul	r3, r2
 961 0424 181C     		mov	r0, r3
 962 0426 FFF7FEFF 		bl	__aeabi_i2d
 963 042a 031C     		mov	r3, r0
 964 042c 0C1C     		mov	r4, r1
 965 042e 181C     		mov	r0, r3
 966 0430 211C     		mov	r1, r4
 967 0432 0022     		mov	r2, #0
ARM GAS  C:\Users\Ecapable\AppData\Local\Temp\ccWGdrt6.s 			page 22


 968 0434 3C4B     		ldr	r3, .L25+24
 969 0436 FFF7FEFF 		bl	__aeabi_ddiv
 970 043a 031C     		mov	r3, r0
 971 043c 0C1C     		mov	r4, r1
 972 043e 181C     		mov	r0, r3
 973 0440 211C     		mov	r1, r4
 974 0442 FFF7FEFF 		bl	__aeabi_d2iz
 975 0446 021C     		mov	r2, r0
 976 0448 394B     		ldr	r3, .L25+32
 977 044a 1A60     		str	r2, [r3]
 231:.\I2CMaster.c ****     Pressure = Pressure + (X1 + X2 + 3791) / pow(2, 4);
 978              		.loc 1 231 0
 979 044c 324B     		ldr	r3, .L25+8
 980 044e 1B68     		ldr	r3, [r3]
 981 0450 181C     		mov	r0, r3
 982 0452 FFF7FEFF 		bl	__aeabi_i2d
 983 0456 051C     		mov	r5, r0
 984 0458 0E1C     		mov	r6, r1
 985 045a 314B     		ldr	r3, .L25+16
 986 045c 1A68     		ldr	r2, [r3]
 987 045e 344B     		ldr	r3, .L25+32
 988 0460 1B68     		ldr	r3, [r3]
 989 0462 D318     		add	r3, r2, r3
 990 0464 334A     		ldr	r2, .L25+36
 991 0466 9446     		mov	ip, r2
 992 0468 6344     		add	r3, r3, ip
 993 046a 181C     		mov	r0, r3
 994 046c FFF7FEFF 		bl	__aeabi_i2d
 995 0470 031C     		mov	r3, r0
 996 0472 0C1C     		mov	r4, r1
 997 0474 181C     		mov	r0, r3
 998 0476 211C     		mov	r1, r4
 999 0478 0022     		mov	r2, #0
 1000 047a 2F4B     		ldr	r3, .L25+40
 1001 047c FFF7FEFF 		bl	__aeabi_ddiv
 1002 0480 031C     		mov	r3, r0
 1003 0482 0C1C     		mov	r4, r1
 1004 0484 281C     		mov	r0, r5
 1005 0486 311C     		mov	r1, r6
 1006 0488 1A1C     		mov	r2, r3
 1007 048a 231C     		mov	r3, r4
 1008 048c FFF7FEFF 		bl	__aeabi_dadd
 1009 0490 031C     		mov	r3, r0
 1010 0492 0C1C     		mov	r4, r1
 1011 0494 181C     		mov	r0, r3
 1012 0496 211C     		mov	r1, r4
 1013 0498 FFF7FEFF 		bl	__aeabi_d2iz
 1014 049c 021C     		mov	r2, r0
 1015 049e 1E4B     		ldr	r3, .L25+8
 1016 04a0 1A60     		str	r2, [r3]
 232:.\I2CMaster.c ****     
 233:.\I2CMaster.c ****     /* Calculate the true altitude based on pressure at sea level as described in sensor datasheet 
 234:.\I2CMaster.c ****     Altitude = 44330 * (1 - (pow(Pressure/PressureAtSeaLevel, 1/5.255)));
 1017              		.loc 1 234 0
 1018 04a2 1D4B     		ldr	r3, .L25+8
 1019 04a4 1B68     		ldr	r3, [r3]
 1020 04a6 181C     		mov	r0, r3
ARM GAS  C:\Users\Ecapable\AppData\Local\Temp\ccWGdrt6.s 			page 23


 1021 04a8 FFF7FEFF 		bl	__aeabi_i2d
 1022 04ac 0A1C     		mov	r2, r1
 1023 04ae 011C     		mov	r1, r0
 1024 04b0 224B     		ldr	r3, .L25+44
 1025 04b2 5C68     		ldr	r4, [r3, #4]
 1026 04b4 1B68     		ldr	r3, [r3]
 1027 04b6 081C     		mov	r0, r1
 1028 04b8 111C     		mov	r1, r2
 1029 04ba 1A1C     		mov	r2, r3
 1030 04bc 231C     		mov	r3, r4
 1031 04be FFF7FEFF 		bl	__aeabi_ddiv
 1032 04c2 031C     		mov	r3, r0
 1033 04c4 0C1C     		mov	r4, r1
 1034 04c6 191C     		mov	r1, r3
 1035 04c8 221C     		mov	r2, r4
 1036 04ca 1D4B     		ldr	r3, .L25+48
 1037 04cc 1D4C     		ldr	r4, .L25+52
 1038 04ce 081C     		mov	r0, r1
 1039 04d0 111C     		mov	r1, r2
 1040 04d2 1A1C     		mov	r2, r3
 1041 04d4 231C     		mov	r3, r4
 1042 04d6 FFF7FEFF 		bl	pow
 1043 04da 031C     		mov	r3, r0
 1044 04dc 0C1C     		mov	r4, r1
 1045 04de 0020     		mov	r0, #0
 1046 04e0 1949     		ldr	r1, .L25+56
 1047 04e2 1A1C     		mov	r2, r3
 1048 04e4 231C     		mov	r3, r4
 1049 04e6 FFF7FEFF 		bl	__aeabi_dsub
 1050 04ea 031C     		mov	r3, r0
 1051 04ec 0C1C     		mov	r4, r1
 1052 04ee 181C     		mov	r0, r3
 1053 04f0 211C     		mov	r1, r4
 1054 04f2 0022     		mov	r2, #0
 1055 04f4 154B     		ldr	r3, .L25+60
 1056 04f6 FFF7FEFF 		bl	__aeabi_dmul
 1057 04fa 031C     		mov	r3, r0
 1058 04fc 0C1C     		mov	r4, r1
 1059 04fe 181C     		mov	r0, r3
 1060 0500 211C     		mov	r1, r4
 1061 0502 FFF7FEFF 		bl	__aeabi_d2iz
 1062 0506 021C     		mov	r2, r0
 1063 0508 114B     		ldr	r3, .L25+64
 1064 050a 1A60     		str	r2, [r3]
 235:.\I2CMaster.c **** }
 1065              		.loc 1 235 0
 1066 050c BD46     		mov	sp, r7
 1067              		@ sp needed
 1068 050e F8BD     		pop	{r3, r4, r5, r6, r7, pc}
 1069              	.L26:
 1070              		.align	2
 1071              	.L25:
 1072 0510 00000000 		.word	B7
 1073 0514 00000000 		.word	B4
 1074 0518 00000000 		.word	Pressure
 1075 051c 00007040 		.word	1081081856
 1076 0520 00000000 		.word	X1
ARM GAS  C:\Users\Ecapable\AppData\Local\Temp\ccWGdrt6.s 			page 24


 1077 0524 DE0B0000 		.word	3038
 1078 0528 0000F040 		.word	1089470464
 1079 052c 43E3FFFF 		.word	-7357
 1080 0530 00000000 		.word	X2
 1081 0534 CF0E0000 		.word	3791
 1082 0538 00003040 		.word	1076887552
 1083 053c 00000000 		.word	PressureAtSeaLevel
 1084 0540 6C45D9CC 		.word	-858176148
 1085 0544 955BC83F 		.word	1070095253
 1086 0548 0000F03F 		.word	1072693248
 1087 054c 40A5E540 		.word	1088791872
 1088 0550 00000000 		.word	Altitude
 1089              		.cfi_endproc
 1090              	.LFE40:
 1091              		.size	ReadAndCalculateSensorData, .-ReadAndCalculateSensorData
 1092              		.data
 1093              		.align	2
 1094              		.type	I2CWriteBuffer.7455, %object
 1095              		.size	I2CWriteBuffer.7455, 1
 1096              	I2CWriteBuffer.7455:
 1097 0008 AA       		.byte	-86
 1098 0009 000000   		.align	2
 1099              		.type	I2CWriteBuffer.7466, %object
 1100              		.size	I2CWriteBuffer.7466, 2
 1101              	I2CWriteBuffer.7466:
 1102 000c F4       		.byte	-12
 1103 000d 2E       		.byte	46
 1104 000e 0000     		.align	2
 1105              		.type	SetReadAddressBuffer.7467, %object
 1106              		.size	SetReadAddressBuffer.7467, 1
 1107              	SetReadAddressBuffer.7467:
 1108 0010 F6       		.byte	-10
 1109              		.bss
 1110 0001 000000   		.align	2
 1111              	I2CReadBuffer.7465:
 1112 0004 0000     		.space	2
 1113              		.data
 1114 0011 000000   		.align	2
 1115              		.type	I2CWriteBuffer.7481, %object
 1116              		.size	I2CWriteBuffer.7481, 2
 1117              	I2CWriteBuffer.7481:
 1118 0014 F4       		.byte	-12
 1119 0015 F4       		.byte	-12
 1120 0016 0000     		.align	2
 1121              		.type	SetReadAddressBuffer.7482, %object
 1122              		.size	SetReadAddressBuffer.7482, 1
 1123              	SetReadAddressBuffer.7482:
 1124 0018 F6       		.byte	-10
 1125 0019 00000000 		.bss
 1125      000000
 1126 0006 0000     		.align	2
 1127              	I2CReadBuffer.7480:
 1128 0008 000000   		.space	3
 1129 000b 00       		.text
 1130              	.Letext0:
 1131              		.file 2 "Generated_Source\\PSoC4/cytypes.h"
 1132              		.file 3 "Generated_Source\\PSoC4/BLE_Stack.h"
ARM GAS  C:\Users\Ecapable\AppData\Local\Temp\ccWGdrt6.s 			page 25

