ARM GAS  C:\Users\Ecapable\AppData\Local\Temp\ccUEQhMk.s 			page 1


   1              		.cpu cortex-m0
   2              		.fpu softvfp
   3              		.eabi_attribute 20, 1
   4              		.eabi_attribute 21, 1
   5              		.eabi_attribute 23, 3
   6              		.eabi_attribute 24, 1
   7              		.eabi_attribute 25, 1
   8              		.eabi_attribute 26, 1
   9              		.eabi_attribute 30, 6
  10              		.eabi_attribute 34, 0
  11              		.eabi_attribute 18, 4
  12              		.code	16
  13              		.file	"main.c"
  14              		.text
  15              	.Ltext0:
  16              		.cfi_sections	.debug_frame
  17              		.global	ChangePowerPinDriveMode
  18              		.data
  19              		.type	ChangePowerPinDriveMode, %object
  20              		.size	ChangePowerPinDriveMode, 1
  21              	ChangePowerPinDriveMode:
  22 0000 01       		.byte	1
  23              		.global	NotificationDelayCounter
  24              		.type	NotificationDelayCounter, %object
  25              		.size	NotificationDelayCounter, 1
  26              	NotificationDelayCounter:
  27 0001 20       		.byte	32
  28              		.global	LEDDelayCounter
  29              		.type	LEDDelayCounter, %object
  30              		.size	LEDDelayCounter, 1
  31              	LEDDelayCounter:
  32 0002 32       		.byte	50
  33              		.comm	LastTemperatureData,4,4
  34              		.comm	LastPressureData,4,4
  35              		.comm	LastAltitudeData,4,4
  36              		.bss
  37              	SleepMode:
  38 0000 00       		.space	1
  39              	BlessState:
  40 0001 00       		.space	1
  41              		.section	.text.main,"ax",%progbits
  42              		.align	2
  43              		.global	main
  44              		.code	16
  45              		.thumb_func
  46              		.type	main, %function
  47              	main:
  48              	.LFB37:
  49              		.file 1 ".\\main.c"
   1:.\main.c      **** /**************************************************************************************************
   2:.\main.c      **** * Project Name		: PSoC_4_BLE_Pressure_Sensor
   3:.\main.c      **** * File Name			: main.c
   4:.\main.c      **** * Version 			: 1.0
   5:.\main.c      **** * Device Used		: CY8C4247LQI-BL483
   6:.\main.c      **** * Software Used		: PSoC Creator 3.1
   7:.\main.c      **** * Compiler    		: ARM GCC 4.8.4
   8:.\main.c      **** * Related Hardware	: CY8CKIT-042-BLE Bluetooth Low Energy Pioneer Kit
ARM GAS  C:\Users\Ecapable\AppData\Local\Temp\ccUEQhMk.s 			page 2


   9:.\main.c      **** ***************************************************************************************************
  10:.\main.c      **** 
  11:.\main.c      **** /**************************************************************************************************
  12:.\main.c      **** * Copyright (2015), Cypress Semiconductor Corporation. All Rights Reserved.
  13:.\main.c      **** ***************************************************************************************************
  14:.\main.c      **** * This software, including source code, documentation and related materials
  15:.\main.c      **** * ("Software") is owned by Cypress Semiconductor Corporation (Cypress) and is
  16:.\main.c      **** * protected by and subject to worldwide patent protection (United States and 
  17:.\main.c      **** * foreign), United States copyright laws and international treaty provisions. 
  18:.\main.c      **** * Cypress hereby grants to licensee a personal, non-exclusive, non-transferable
  19:.\main.c      **** * license to copy, use, modify, create derivative works of, and compile the 
  20:.\main.c      **** * Cypress source code and derivative works for the sole purpose of creating 
  21:.\main.c      **** * custom software in support of licensee product, such licensee product to be
  22:.\main.c      **** * used only in conjunction with Cypress's integrated circuit as specified in the
  23:.\main.c      **** * applicable agreement. Any reproduction, modification, translation, compilation,
  24:.\main.c      **** * or representation of this Software except as specified above is prohibited 
  25:.\main.c      **** * without the express written permission of Cypress.
  26:.\main.c      **** * 
  27:.\main.c      **** * Disclaimer: THIS SOFTWARE IS PROVIDED AS-IS, WITH NO WARRANTY OF ANY KIND, 
  28:.\main.c      **** * EXPRESS OR IMPLIED, INCLUDING, BUT NOT LIMITED TO, NONINFRINGEMENT, IMPLIED 
  29:.\main.c      **** * WARRANTIES OF MERCHANTABILITY AND FITNESS FOR A PARTICULAR PURPOSE.
  30:.\main.c      **** * Cypress reserves the right to make changes to the Software without notice. 
  31:.\main.c      **** * Cypress does not assume any liability arising out of the application or use
  32:.\main.c      **** * of Software or any product or circuit described in the Software. Cypress does
  33:.\main.c      **** * not authorize its products for use as critical components in any products 
  34:.\main.c      **** * where a malfunction or failure may reasonably be expected to result in 
  35:.\main.c      **** * significant injury or death ("ACTIVE Risk Product"). By including Cypress's 
  36:.\main.c      **** * product in a ACTIVE Risk Product, the manufacturer of such system or application
  37:.\main.c      **** * assumes all risk of such use and in doing so indemnifies Cypress against all
  38:.\main.c      **** * liability. Use of this Software may be limited by and subject to the applicable
  39:.\main.c      **** * Cypress software license agreement.
  40:.\main.c      **** ***************************************************************************************************
  41:.\main.c      **** 
  42:.\main.c      **** /**************************************************************************************************
  43:.\main.c      **** *                           THEORY OF OPERATION
  44:.\main.c      **** ***************************************************************************************************
  45:.\main.c      **** * This project showcases the capability of PSoC 4 BLE to communicate with an I2C digital sensor and
  46:.\main.c      **** * The data communicated over BLE is the Temperature, Barometric Pressure and Altitude value acquire
  47:.\main.c      **** * This project uses an I2C component (Master) to acquire the data from the sensor and reports it to
  48:.\main.c      **** * The sensor data sent to the Central device over a Custom Service.
  49:.\main.c      **** * The Custom Service allows notifications to be sent to Central device when enabled.
  50:.\main.c      **** * 
  51:.\main.c      **** * For Adafruit's BMP180 Pressure Sensor theory of operation, please refer to the sensor datasheet.
  52:.\main.c      **** * http://www.adafruit.com/product/1603
  53:.\main.c      **** 
  54:.\main.c      **** ***************************************************************************************************
  55:.\main.c      **** * Note: The programming pins in the project have been configured as SWD.
  56:.\main.c      **** * With this settings, the PSoC 4 BLE device consumes extra power through the programming pins.
  57:.\main.c      **** * To prevent the leakage of power, the programming pins can be configured as GPIO. To configure,
  58:.\main.c      **** * open the PSoC_4_BLE_Pressure_Sensor.cydwr file from the Workspace Explorer, go to Systems tab,
  59:.\main.c      **** * and set the Debug Select option to GPIO.
  60:.\main.c      **** ***************************************************************************************************
  61:.\main.c      **** * Hardware connection required:
  62:.\main.c      **** * Red LED - P2[6] (Hard-wired on the BLE Pioneer Kit)
  63:.\main.c      **** * Plug in the sensor to the outer row of the BLE Pioneer Kit Arduino compatible header J2
  64:.\main.c      **** * Sensor SDA - P3[0] - J2.1
  65:.\main.c      **** * Sensor SCL - P3[1] - J2.3
ARM GAS  C:\Users\Ecapable\AppData\Local\Temp\ccUEQhMk.s 			page 3


  66:.\main.c      **** * Sensor GND - P3[2] - J2.5
  67:.\main.c      **** * Sensor VIN - P3[4] - J2.7
  68:.\main.c      **** ***************************************************************************************************
  69:.\main.c      **** 
  70:.\main.c      **** #include <main.h>
  71:.\main.c      **** 
  72:.\main.c      **** /*************************Variables Declaration****************************************************
  73:.\main.c      **** uint8 ChangePowerPinDriveMode = TRUE; //This flag is set when the GATT disconnect event occurs
  74:.\main.c      **** uint8 NotificationDelayCounter = NOTIFICATION_DELAY_COUNT; //Counter to handle the periodic notific
  75:.\main.c      **** uint8 LEDDelayCounter = LED_DELAY_COUNT; //Counter to handle the LED blinking
  76:.\main.c      **** long LastTemperatureData; //Variable to store the previous temperature reading
  77:.\main.c      **** long LastPressureData; //Variable to store the previous pressure reading
  78:.\main.c      **** long LastAltitudeData; //Variable to store the previous altitude reading
  79:.\main.c      **** extern uint8 StartAdvertisement; //This flag is used to start advertisement
  80:.\main.c      **** extern uint8 DeviceConnected; //This flag is set when a Central device is connected
  81:.\main.c      **** extern uint8 TemperatureNotificationEnabled; //This flag is set when the Central device writes to C
  82:.\main.c      **** extern uint8 PressureNotificationEnabled; //This flag is set when the Central device writes to CCCD
  83:.\main.c      **** extern uint8 AltitudeNotificationEnabled; //This flag is set when the Central device writes to CCCD
  84:.\main.c      **** extern uint8 TemperatureNotificationData[0x04]; //The temperature notification value is stored in t
  85:.\main.c      **** extern uint8 PressureNotificationData[0x04]; //The pressure notification value is stored in this ar
  86:.\main.c      **** extern uint8 AltitudeNotificationData[0x04]; //The altitude notification value is stored in this ar
  87:.\main.c      **** extern long Temperature; //Variable to store the true temperature
  88:.\main.c      **** extern long Pressure; //Variable to store the true pressure
  89:.\main.c      **** extern long Altitude; //Variable to store the true altitude
  90:.\main.c      **** static CYBLE_LP_MODE_T SleepMode; //Variable to store the status of BLESS Hardware block
  91:.\main.c      **** static CYBLE_BLESS_STATE_T BlessState; //Variable to store the status of BLESS Hardware block
  92:.\main.c      **** /**************************************************************************************************
  93:.\main.c      **** 
  94:.\main.c      **** /**************************************************************************************************
  95:.\main.c      **** * Function Name: main
  96:.\main.c      **** ***************************************************************************************************
  97:.\main.c      **** * Summary: This is the system entrance point. This function initializes the system and
  98:.\main.c      **** * continuously process sensor data and BLE events. It also handles the low power mode.
  99:.\main.c      **** *
 100:.\main.c      **** * Parameters:
 101:.\main.c      **** *  void
 102:.\main.c      **** *
 103:.\main.c      **** * Return:
 104:.\main.c      **** *  int
 105:.\main.c      **** *
 106:.\main.c      **** 
 107:.\main.c      **** ***************************************************************************************************
 108:.\main.c      **** int main()
 109:.\main.c      **** {
  50              		.loc 1 109 0
  51              		.cfi_startproc
  52 0000 80B5     		push	{r7, lr}
  53              		.cfi_def_cfa_offset 8
  54              		.cfi_offset 7, -8
  55              		.cfi_offset 14, -4
  56 0002 00AF     		add	r7, sp, #0
  57              		.cfi_def_cfa_register 7
 110:.\main.c      ****     InitializeSystem(); //Initialize the Components and enable interrupts
  58              		.loc 1 110 0
  59 0004 FFF7FEFF 		bl	InitializeSystem
  60              	.L4:
 111:.\main.c      ****     
ARM GAS  C:\Users\Ecapable\AppData\Local\Temp\ccUEQhMk.s 			page 4


 112:.\main.c      ****     for(;;)
 113:.\main.c      ****     {
 114:.\main.c      ****         /* Process event CallBack to handle BLE events.
 115:.\main.c      ****         The events generated and used in this application are inside the CustomEventHandler routine
 116:.\main.c      ****         CyBle_ProcessEvents();
  61              		.loc 1 116 0
  62 0008 FFF7FEFF 		bl	CyBle_ProcessEvents
 117:.\main.c      ****         
 118:.\main.c      ****         HandleStatusLED(); //Update the status LED depending upon the BLE state
  63              		.loc 1 118 0
  64 000c FFF7FEFF 		bl	HandleStatusLED
 119:.\main.c      ****         
 120:.\main.c      ****         if(DeviceConnected)
  65              		.loc 1 120 0
  66 0010 144B     		ldr	r3, .L5
  67 0012 1B78     		ldrb	r3, [r3]
  68 0014 002B     		cmp	r3, #0
  69 0016 12D0     		beq	.L2
 121:.\main.c      **** 		{
 122:.\main.c      **** 			UpdateConnectionParameters(); //Update the Connection Parameters to run the BLE communication on
  70              		.loc 1 122 0
  71 0018 FFF7FEFF 		bl	UpdateConnectionParameters
 123:.\main.c      ****             
 124:.\main.c      ****             UpdateNotificationCCCDAttribute(); //Update the CCCD writing by the Central device
  72              		.loc 1 124 0
  73 001c FFF7FEFF 		bl	UpdateNotificationCCCDAttribute
 125:.\main.c      ****             
 126:.\main.c      ****             if(--NotificationDelayCounter == ZERO)
  74              		.loc 1 126 0
  75 0020 114B     		ldr	r3, .L5+4
  76 0022 1B78     		ldrb	r3, [r3]
  77 0024 013B     		sub	r3, r3, #1
  78 0026 DAB2     		uxtb	r2, r3
  79 0028 0F4B     		ldr	r3, .L5+4
  80 002a 1A70     		strb	r2, [r3]
  81 002c 0E4B     		ldr	r3, .L5+4
  82 002e 1B78     		ldrb	r3, [r3]
  83 0030 002B     		cmp	r3, #0
  84 0032 04D1     		bne	.L2
 127:.\main.c      ****             {
 128:.\main.c      ****                 NotificationDelayCounter = NOTIFICATION_DELAY_COUNT; //Reset the notification count
  85              		.loc 1 128 0
  86 0034 0C4B     		ldr	r3, .L5+4
  87 0036 2022     		mov	r2, #32
  88 0038 1A70     		strb	r2, [r3]
 129:.\main.c      ****                 ReadSensorDataAndNotify(); //Read the sensor and send notifications if enabled when
  89              		.loc 1 129 0
  90 003a FFF7FEFF 		bl	ReadSensorDataAndNotify
  91              	.L2:
 130:.\main.c      ****             }
 131:.\main.c      **** 		}
 132:.\main.c      **** 		
 133:.\main.c      ****         EnterExitLowPowerMode(); //Enter low power mode
  92              		.loc 1 133 0
  93 003e FFF7FEFF 		bl	EnterExitLowPowerMode
 134:.\main.c      ****         
 135:.\main.c      ****         if(StartAdvertisement)
ARM GAS  C:\Users\Ecapable\AppData\Local\Temp\ccUEQhMk.s 			page 5


  94              		.loc 1 135 0
  95 0042 0A4B     		ldr	r3, .L5+8
  96 0044 1B78     		ldrb	r3, [r3]
  97 0046 002B     		cmp	r3, #0
  98 0048 0BD0     		beq	.L3
 136:.\main.c      ****         {
 137:.\main.c      ****             StartAdvertisement = FALSE; //Clear the advertisement flag
  99              		.loc 1 137 0
 100 004a 084B     		ldr	r3, .L5+8
 101 004c 0022     		mov	r2, #0
 102 004e 1A70     		strb	r2, [r3]
 138:.\main.c      ****             
 139:.\main.c      ****             CyBle_GappStartAdvertisement(CYBLE_ADVERTISING_FAST); //Start advertisement and enter D
 103              		.loc 1 139 0
 104 0050 0020     		mov	r0, #0
 105 0052 FFF7FEFF 		bl	CyBle_GappStartAdvertisement
 140:.\main.c      ****             
 141:.\main.c      ****             LED_Write(ZERO); //Turn on the status LED
 106              		.loc 1 141 0
 107 0056 0020     		mov	r0, #0
 108 0058 FFF7FEFF 		bl	LED_Write
 142:.\main.c      ****             LED_SetDriveMode(LED_DM_STRONG); //Set the LED pin drive mode to Strong
 109              		.loc 1 142 0
 110 005c 0620     		mov	r0, #6
 111 005e FFF7FEFF 		bl	LED_SetDriveMode
 112              	.L3:
 143:.\main.c      ****         }
 144:.\main.c      ****     }
 113              		.loc 1 144 0
 114 0062 D1E7     		b	.L4
 115              	.L6:
 116              		.align	2
 117              	.L5:
 118 0064 00000000 		.word	DeviceConnected
 119 0068 00000000 		.word	NotificationDelayCounter
 120 006c 00000000 		.word	StartAdvertisement
 121              		.cfi_endproc
 122              	.LFE37:
 123              		.size	main, .-main
 124              		.section	.text.InitializeSystem,"ax",%progbits
 125              		.align	2
 126              		.global	InitializeSystem
 127              		.code	16
 128              		.thumb_func
 129              		.type	InitializeSystem, %function
 130              	InitializeSystem:
 131              	.LFB38:
 145:.\main.c      **** }
 146:.\main.c      **** /**************************************************************************************************
 147:.\main.c      **** 
 148:.\main.c      **** /**************************************************************************************************
 149:.\main.c      **** * Function Name: InitializeSystem
 150:.\main.c      **** ***************************************************************************************************
 151:.\main.c      **** * Summary: This function starts the components and initialize system.
 152:.\main.c      **** *
 153:.\main.c      **** * Parameters:
 154:.\main.c      **** *  void
ARM GAS  C:\Users\Ecapable\AppData\Local\Temp\ccUEQhMk.s 			page 6


 155:.\main.c      **** *
 156:.\main.c      **** * Return:
 157:.\main.c      **** *  void
 158:.\main.c      **** *
 159:.\main.c      **** ***************************************************************************************************
 160:.\main.c      **** void InitializeSystem(void)
 161:.\main.c      **** {
 132              		.loc 1 161 0
 133              		.cfi_startproc
 134 0000 80B5     		push	{r7, lr}
 135              		.cfi_def_cfa_offset 8
 136              		.cfi_offset 7, -8
 137              		.cfi_offset 14, -4
 138 0002 00AF     		add	r7, sp, #0
 139              		.cfi_def_cfa_register 7
 162:.\main.c      ****     CyGlobalIntEnable; //Enable global interrupts
 140              		.loc 1 162 0
 141              	@ 162 ".\main.c" 1
 142 0004 62B6     		CPSIE   i
 143              	@ 0 "" 2
 163:.\main.c      ****     
 164:.\main.c      ****     /* Start BLE component and register the CustomEventHandler function.
 165:.\main.c      ****     This function exposes the events from BLE component for application use */
 166:.\main.c      ****     CyBle_Start(CustomEventHandler);
 144              		.loc 1 166 0
 145              		.code	16
 146 0006 0C4B     		ldr	r3, .L8
 147 0008 181C     		mov	r0, r3
 148 000a FFF7FEFF 		bl	CyBle_Start
 167:.\main.c      ****     
 168:.\main.c      ****     I2C_Start(); //Start the I2C component
 149              		.loc 1 168 0
 150 000e FFF7FEFF 		bl	I2C_Start
 169:.\main.c      ****     
 170:.\main.c      ****     Btn_Interrupt_StartEx(ButtonISR); //Start the button ISR to allow wakeup from sleep
 151              		.loc 1 170 0
 152 0012 0A4B     		ldr	r3, .L8+4
 153 0014 181C     		mov	r0, r3
 154 0016 FFF7FEFF 		bl	Btn_Interrupt_StartEx
 171:.\main.c      ****     
 172:.\main.c      ****     GND_Write(ZERO); //Turn off the GND pin    
 155              		.loc 1 172 0
 156 001a 0020     		mov	r0, #0
 157 001c FFF7FEFF 		bl	GND_Write
 173:.\main.c      ****     GND_SetDriveMode(GND_DM_STRONG); //Set the GND pin drive mode to Strong
 158              		.loc 1 173 0
 159 0020 0620     		mov	r0, #6
 160 0022 FFF7FEFF 		bl	GND_SetDriveMode
 174:.\main.c      ****     
 175:.\main.c      ****     VDD_Write(ONE); //Turn on the power pin    
 161              		.loc 1 175 0
 162 0026 0120     		mov	r0, #1
 163 0028 FFF7FEFF 		bl	VDD_Write
 176:.\main.c      ****     VDD_SetDriveMode(VDD_DM_STRONG); //Set the VDD pin drive mode to Strong
 164              		.loc 1 176 0
 165 002c 0620     		mov	r0, #6
 166 002e FFF7FEFF 		bl	VDD_SetDriveMode
ARM GAS  C:\Users\Ecapable\AppData\Local\Temp\ccUEQhMk.s 			page 7


 177:.\main.c      **** }
 167              		.loc 1 177 0
 168 0032 BD46     		mov	sp, r7
 169              		@ sp needed
 170 0034 80BD     		pop	{r7, pc}
 171              	.L9:
 172 0036 C046     		.align	2
 173              	.L8:
 174 0038 00000000 		.word	CustomEventHandler
 175 003c 00000000 		.word	ButtonISR
 176              		.cfi_endproc
 177              	.LFE38:
 178              		.size	InitializeSystem, .-InitializeSystem
 179              		.section	.text.ReadSensorDataAndNotify,"ax",%progbits
 180              		.align	2
 181              		.global	ReadSensorDataAndNotify
 182              		.code	16
 183              		.thumb_func
 184              		.type	ReadSensorDataAndNotify, %function
 185              	ReadSensorDataAndNotify:
 186              	.LFB39:
 178:.\main.c      **** /**************************************************************************************************
 179:.\main.c      **** 
 180:.\main.c      **** /**************************************************************************************************
 181:.\main.c      **** * Function Name: ReadSensorDataAndNotify
 182:.\main.c      **** ***************************************************************************************************
 183:.\main.c      **** * Summary: This function checks whether any of the notifications is enabled and sends the sensor da
 184:.\main.c      **** * If any notification is enabled and the sensor data has changed from the previous readings, it sen
 185:.\main.c      **** *
 186:.\main.c      **** * Parameters:
 187:.\main.c      **** *  void
 188:.\main.c      **** *
 189:.\main.c      **** * Return:
 190:.\main.c      **** *  void
 191:.\main.c      **** *
 192:.\main.c      **** ***************************************************************************************************
 193:.\main.c      **** void ReadSensorDataAndNotify(void)
 194:.\main.c      **** {
 187              		.loc 1 194 0
 188              		.cfi_startproc
 189 0000 80B5     		push	{r7, lr}
 190              		.cfi_def_cfa_offset 8
 191              		.cfi_offset 7, -8
 192              		.cfi_offset 14, -4
 193 0002 00AF     		add	r7, sp, #0
 194              		.cfi_def_cfa_register 7
 195:.\main.c      ****     /* Start sensor data processing if any notification is enabled */
 196:.\main.c      ****     if((TemperatureNotificationEnabled || PressureNotificationEnabled || AltitudeNotificationEnable
 195              		.loc 1 196 0
 196 0004 424B     		ldr	r3, .L16
 197 0006 1B78     		ldrb	r3, [r3]
 198 0008 002B     		cmp	r3, #0
 199 000a 07D1     		bne	.L11
 200              		.loc 1 196 0 is_stmt 0 discriminator 1
 201 000c 414B     		ldr	r3, .L16+4
 202 000e 1B78     		ldrb	r3, [r3]
 203 0010 002B     		cmp	r3, #0
ARM GAS  C:\Users\Ecapable\AppData\Local\Temp\ccUEQhMk.s 			page 8


 204 0012 03D1     		bne	.L11
 205              		.loc 1 196 0 discriminator 2
 206 0014 404B     		ldr	r3, .L16+8
 207 0016 1B78     		ldrb	r3, [r3]
 208 0018 002B     		cmp	r3, #0
 209 001a 01D0     		beq	.L12
 210              	.L11:
 197:.\main.c      ****     {
 198:.\main.c      ****         ReadAndCalculateSensorData(); //Read and calculate the sensor data
 211              		.loc 1 198 0 is_stmt 1
 212 001c FFF7FEFF 		bl	ReadAndCalculateSensorData
 213              	.L12:
 199:.\main.c      ****     }
 200:.\main.c      ****     
 201:.\main.c      ****     /* Check whether the temperature notification is enabled and the data has changed from the prev
 202:.\main.c      ****     if(TemperatureNotificationEnabled && (Temperature != LastTemperatureData))
 214              		.loc 1 202 0
 215 0020 3B4B     		ldr	r3, .L16
 216 0022 1B78     		ldrb	r3, [r3]
 217 0024 002B     		cmp	r3, #0
 218 0026 22D0     		beq	.L13
 219              		.loc 1 202 0 is_stmt 0 discriminator 1
 220 0028 3C4B     		ldr	r3, .L16+12
 221 002a 1A68     		ldr	r2, [r3]
 222 002c 3C4B     		ldr	r3, .L16+16
 223 002e 1B68     		ldr	r3, [r3]
 224 0030 9A42     		cmp	r2, r3
 225 0032 1CD0     		beq	.L13
 203:.\main.c      ****     {
 204:.\main.c      ****         /* Convert the temperature data into notification type */
 205:.\main.c      ****         TemperatureNotificationData[0x00] = Temperature;
 226              		.loc 1 205 0 is_stmt 1
 227 0034 394B     		ldr	r3, .L16+12
 228 0036 1B68     		ldr	r3, [r3]
 229 0038 DAB2     		uxtb	r2, r3
 230 003a 3A4B     		ldr	r3, .L16+20
 231 003c 1A70     		strb	r2, [r3]
 206:.\main.c      ****         TemperatureNotificationData[0x01] = Temperature >> 0x08;
 232              		.loc 1 206 0
 233 003e 374B     		ldr	r3, .L16+12
 234 0040 1B68     		ldr	r3, [r3]
 235 0042 1B12     		asr	r3, r3, #8
 236 0044 DAB2     		uxtb	r2, r3
 237 0046 374B     		ldr	r3, .L16+20
 238 0048 5A70     		strb	r2, [r3, #1]
 207:.\main.c      ****         TemperatureNotificationData[0x02] = Temperature >> 0x10;
 239              		.loc 1 207 0
 240 004a 344B     		ldr	r3, .L16+12
 241 004c 1B68     		ldr	r3, [r3]
 242 004e 1B14     		asr	r3, r3, #16
 243 0050 DAB2     		uxtb	r2, r3
 244 0052 344B     		ldr	r3, .L16+20
 245 0054 9A70     		strb	r2, [r3, #2]
 208:.\main.c      ****         TemperatureNotificationData[0x03] = Temperature >> 0x18;
 246              		.loc 1 208 0
 247 0056 314B     		ldr	r3, .L16+12
 248 0058 1B68     		ldr	r3, [r3]
ARM GAS  C:\Users\Ecapable\AppData\Local\Temp\ccUEQhMk.s 			page 9


 249 005a 1B16     		asr	r3, r3, #24
 250 005c DAB2     		uxtb	r2, r3
 251 005e 314B     		ldr	r3, .L16+20
 252 0060 DA70     		strb	r2, [r3, #3]
 209:.\main.c      ****         
 210:.\main.c      ****         LastTemperatureData = Temperature; //Store the current temperature data for reference
 253              		.loc 1 210 0
 254 0062 2E4B     		ldr	r3, .L16+12
 255 0064 1A68     		ldr	r2, [r3]
 256 0066 2E4B     		ldr	r3, .L16+16
 257 0068 1A60     		str	r2, [r3]
 211:.\main.c      ****         
 212:.\main.c      ****         SendTemperatureOverNotification(); //Send temperature data as notification
 258              		.loc 1 212 0
 259 006a FFF7FEFF 		bl	SendTemperatureOverNotification
 260              	.L13:
 213:.\main.c      ****     }
 214:.\main.c      ****     
 215:.\main.c      ****     /* Check whether the pressure notification is enabled and the data has changed from the previou
 216:.\main.c      ****     if(PressureNotificationEnabled && (Pressure != LastPressureData))
 261              		.loc 1 216 0
 262 006e 294B     		ldr	r3, .L16+4
 263 0070 1B78     		ldrb	r3, [r3]
 264 0072 002B     		cmp	r3, #0
 265 0074 22D0     		beq	.L14
 266              		.loc 1 216 0 is_stmt 0 discriminator 1
 267 0076 2C4B     		ldr	r3, .L16+24
 268 0078 1A68     		ldr	r2, [r3]
 269 007a 2C4B     		ldr	r3, .L16+28
 270 007c 1B68     		ldr	r3, [r3]
 271 007e 9A42     		cmp	r2, r3
 272 0080 1CD0     		beq	.L14
 217:.\main.c      ****     {
 218:.\main.c      ****         /* Convert the pressure data into notification type */
 219:.\main.c      ****         PressureNotificationData[0x00] = Pressure;
 273              		.loc 1 219 0 is_stmt 1
 274 0082 294B     		ldr	r3, .L16+24
 275 0084 1B68     		ldr	r3, [r3]
 276 0086 DAB2     		uxtb	r2, r3
 277 0088 294B     		ldr	r3, .L16+32
 278 008a 1A70     		strb	r2, [r3]
 220:.\main.c      ****         PressureNotificationData[0x01] = Pressure >> 0x08;
 279              		.loc 1 220 0
 280 008c 264B     		ldr	r3, .L16+24
 281 008e 1B68     		ldr	r3, [r3]
 282 0090 1B12     		asr	r3, r3, #8
 283 0092 DAB2     		uxtb	r2, r3
 284 0094 264B     		ldr	r3, .L16+32
 285 0096 5A70     		strb	r2, [r3, #1]
 221:.\main.c      ****         PressureNotificationData[0x02] = Pressure >> 0x10;
 286              		.loc 1 221 0
 287 0098 234B     		ldr	r3, .L16+24
 288 009a 1B68     		ldr	r3, [r3]
 289 009c 1B14     		asr	r3, r3, #16
 290 009e DAB2     		uxtb	r2, r3
 291 00a0 234B     		ldr	r3, .L16+32
 292 00a2 9A70     		strb	r2, [r3, #2]
ARM GAS  C:\Users\Ecapable\AppData\Local\Temp\ccUEQhMk.s 			page 10


 222:.\main.c      ****         PressureNotificationData[0x03] = Pressure >> 0x18;
 293              		.loc 1 222 0
 294 00a4 204B     		ldr	r3, .L16+24
 295 00a6 1B68     		ldr	r3, [r3]
 296 00a8 1B16     		asr	r3, r3, #24
 297 00aa DAB2     		uxtb	r2, r3
 298 00ac 204B     		ldr	r3, .L16+32
 299 00ae DA70     		strb	r2, [r3, #3]
 223:.\main.c      ****         
 224:.\main.c      ****         LastPressureData = Pressure; //Store the current pressure data for reference
 300              		.loc 1 224 0
 301 00b0 1D4B     		ldr	r3, .L16+24
 302 00b2 1A68     		ldr	r2, [r3]
 303 00b4 1D4B     		ldr	r3, .L16+28
 304 00b6 1A60     		str	r2, [r3]
 225:.\main.c      ****         
 226:.\main.c      ****         SendPressureOverNotification(); //Send pressure data as notification
 305              		.loc 1 226 0
 306 00b8 FFF7FEFF 		bl	SendPressureOverNotification
 307              	.L14:
 227:.\main.c      ****     }
 228:.\main.c      ****     
 229:.\main.c      ****     /* Check whether the altitude notification is enabled and the data has changed from the previou
 230:.\main.c      ****     if(AltitudeNotificationEnabled && (Altitude != LastAltitudeData))
 308              		.loc 1 230 0
 309 00bc 164B     		ldr	r3, .L16+8
 310 00be 1B78     		ldrb	r3, [r3]
 311 00c0 002B     		cmp	r3, #0
 312 00c2 22D0     		beq	.L10
 313              		.loc 1 230 0 is_stmt 0 discriminator 1
 314 00c4 1B4B     		ldr	r3, .L16+36
 315 00c6 1A68     		ldr	r2, [r3]
 316 00c8 1B4B     		ldr	r3, .L16+40
 317 00ca 1B68     		ldr	r3, [r3]
 318 00cc 9A42     		cmp	r2, r3
 319 00ce 1CD0     		beq	.L10
 231:.\main.c      ****     {
 232:.\main.c      ****         /* Convert the altitude data into notification type */
 233:.\main.c      ****         AltitudeNotificationData[0x00] = Altitude;
 320              		.loc 1 233 0 is_stmt 1
 321 00d0 184B     		ldr	r3, .L16+36
 322 00d2 1B68     		ldr	r3, [r3]
 323 00d4 DAB2     		uxtb	r2, r3
 324 00d6 194B     		ldr	r3, .L16+44
 325 00d8 1A70     		strb	r2, [r3]
 234:.\main.c      ****         AltitudeNotificationData[0x01] = Altitude >> 0x08;
 326              		.loc 1 234 0
 327 00da 164B     		ldr	r3, .L16+36
 328 00dc 1B68     		ldr	r3, [r3]
 329 00de 1B12     		asr	r3, r3, #8
 330 00e0 DAB2     		uxtb	r2, r3
 331 00e2 164B     		ldr	r3, .L16+44
 332 00e4 5A70     		strb	r2, [r3, #1]
 235:.\main.c      ****         AltitudeNotificationData[0x02] = Altitude >> 0x10;
 333              		.loc 1 235 0
 334 00e6 134B     		ldr	r3, .L16+36
 335 00e8 1B68     		ldr	r3, [r3]
ARM GAS  C:\Users\Ecapable\AppData\Local\Temp\ccUEQhMk.s 			page 11


 336 00ea 1B14     		asr	r3, r3, #16
 337 00ec DAB2     		uxtb	r2, r3
 338 00ee 134B     		ldr	r3, .L16+44
 339 00f0 9A70     		strb	r2, [r3, #2]
 236:.\main.c      ****         AltitudeNotificationData[0x03] = Altitude >> 0x18;
 340              		.loc 1 236 0
 341 00f2 104B     		ldr	r3, .L16+36
 342 00f4 1B68     		ldr	r3, [r3]
 343 00f6 1B16     		asr	r3, r3, #24
 344 00f8 DAB2     		uxtb	r2, r3
 345 00fa 104B     		ldr	r3, .L16+44
 346 00fc DA70     		strb	r2, [r3, #3]
 237:.\main.c      ****         
 238:.\main.c      ****         LastAltitudeData = Altitude; //Store the current altitude data for reference
 347              		.loc 1 238 0
 348 00fe 0D4B     		ldr	r3, .L16+36
 349 0100 1A68     		ldr	r2, [r3]
 350 0102 0D4B     		ldr	r3, .L16+40
 351 0104 1A60     		str	r2, [r3]
 239:.\main.c      ****         
 240:.\main.c      ****         SendAltitudeOverNotification(); //Send altitude data as notification
 352              		.loc 1 240 0
 353 0106 FFF7FEFF 		bl	SendAltitudeOverNotification
 354              	.L10:
 241:.\main.c      ****     }
 242:.\main.c      **** }
 355              		.loc 1 242 0
 356 010a BD46     		mov	sp, r7
 357              		@ sp needed
 358 010c 80BD     		pop	{r7, pc}
 359              	.L17:
 360 010e C046     		.align	2
 361              	.L16:
 362 0110 00000000 		.word	TemperatureNotificationEnabled
 363 0114 00000000 		.word	PressureNotificationEnabled
 364 0118 00000000 		.word	AltitudeNotificationEnabled
 365 011c 00000000 		.word	Temperature
 366 0120 00000000 		.word	LastTemperatureData
 367 0124 00000000 		.word	TemperatureNotificationData
 368 0128 00000000 		.word	Pressure
 369 012c 00000000 		.word	LastPressureData
 370 0130 00000000 		.word	PressureNotificationData
 371 0134 00000000 		.word	Altitude
 372 0138 00000000 		.word	LastAltitudeData
 373 013c 00000000 		.word	AltitudeNotificationData
 374              		.cfi_endproc
 375              	.LFE39:
 376              		.size	ReadSensorDataAndNotify, .-ReadSensorDataAndNotify
 377              		.section	.text.HandleStatusLED,"ax",%progbits
 378              		.align	2
 379              		.global	HandleStatusLED
 380              		.code	16
 381              		.thumb_func
 382              		.type	HandleStatusLED, %function
 383              	HandleStatusLED:
 384              	.LFB40:
 243:.\main.c      **** /**************************************************************************************************
ARM GAS  C:\Users\Ecapable\AppData\Local\Temp\ccUEQhMk.s 			page 12


 244:.\main.c      **** 
 245:.\main.c      **** /**************************************************************************************************
 246:.\main.c      **** * Function Name: HandleStatusLED
 247:.\main.c      **** ***************************************************************************************************
 248:.\main.c      **** * Summary: This function controls the status LED depending upon the BLE state.
 249:.\main.c      **** *
 250:.\main.c      **** * Parameters:
 251:.\main.c      **** *  void
 252:.\main.c      **** *
 253:.\main.c      **** * Return:
 254:.\main.c      **** *  void
 255:.\main.c      **** *
 256:.\main.c      **** ***************************************************************************************************
 257:.\main.c      **** void HandleStatusLED(void)
 258:.\main.c      **** {
 385              		.loc 1 258 0
 386              		.cfi_startproc
 387 0000 80B5     		push	{r7, lr}
 388              		.cfi_def_cfa_offset 8
 389              		.cfi_offset 7, -8
 390              		.cfi_offset 14, -4
 391 0002 00AF     		add	r7, sp, #0
 392              		.cfi_def_cfa_register 7
 259:.\main.c      ****     /* Check whether the device is advertising and blink the LED */
 260:.\main.c      ****     if(CyBle_GetState() == CYBLE_STATE_ADVERTISING)
 393              		.loc 1 260 0
 394 0004 114B     		ldr	r3, .L22
 395 0006 1B78     		ldrb	r3, [r3]
 396 0008 032B     		cmp	r3, #3
 397 000a 16D1     		bne	.L19
 261:.\main.c      ****     {
 262:.\main.c      ****         if(--LEDDelayCounter == ZERO)
 398              		.loc 1 262 0
 399 000c 104B     		ldr	r3, .L22+4
 400 000e 1B78     		ldrb	r3, [r3]
 401 0010 013B     		sub	r3, r3, #1
 402 0012 DAB2     		uxtb	r2, r3
 403 0014 0E4B     		ldr	r3, .L22+4
 404 0016 1A70     		strb	r2, [r3]
 405 0018 0D4B     		ldr	r3, .L22+4
 406 001a 1B78     		ldrb	r3, [r3]
 407 001c 002B     		cmp	r3, #0
 408 001e 12D1     		bne	.L18
 263:.\main.c      ****         {
 264:.\main.c      ****             LEDDelayCounter = LED_DELAY_COUNT; //Reset the LED state counter
 409              		.loc 1 264 0
 410 0020 0B4B     		ldr	r3, .L22+4
 411 0022 3222     		mov	r2, #50
 412 0024 1A70     		strb	r2, [r3]
 265:.\main.c      ****             LED_Write(!LED_Read()); //Toggle the status LED when the counter is reset
 413              		.loc 1 265 0
 414 0026 FFF7FEFF 		bl	LED_Read
 415 002a 031C     		mov	r3, r0
 416 002c 5A42     		neg	r2, r3
 417 002e 5341     		adc	r3, r3, r2
 418 0030 DBB2     		uxtb	r3, r3
 419 0032 181C     		mov	r0, r3
ARM GAS  C:\Users\Ecapable\AppData\Local\Temp\ccUEQhMk.s 			page 13


 420 0034 FFF7FEFF 		bl	LED_Write
 421 0038 05E0     		b	.L18
 422              	.L19:
 266:.\main.c      ****         }
 267:.\main.c      ****     }    
 268:.\main.c      ****     else
 269:.\main.c      ****     {
 270:.\main.c      ****         LED_Write(ONE); //Turn off the status LED
 423              		.loc 1 270 0
 424 003a 0120     		mov	r0, #1
 425 003c FFF7FEFF 		bl	LED_Write
 271:.\main.c      ****         LED_SetDriveMode(LED_DM_ALG_HIZ); //Set the LED pin drive mode to Hi-Z
 426              		.loc 1 271 0
 427 0040 0020     		mov	r0, #0
 428 0042 FFF7FEFF 		bl	LED_SetDriveMode
 429              	.L18:
 272:.\main.c      ****     }
 273:.\main.c      **** }
 430              		.loc 1 273 0
 431 0046 BD46     		mov	sp, r7
 432              		@ sp needed
 433 0048 80BD     		pop	{r7, pc}
 434              	.L23:
 435 004a C046     		.align	2
 436              	.L22:
 437 004c 00000000 		.word	cyBle_state
 438 0050 00000000 		.word	LEDDelayCounter
 439              		.cfi_endproc
 440              	.LFE40:
 441              		.size	HandleStatusLED, .-HandleStatusLED
 442              		.section	.text.EnterExitLowPowerMode,"ax",%progbits
 443              		.align	2
 444              		.global	EnterExitLowPowerMode
 445              		.code	16
 446              		.thumb_func
 447              		.type	EnterExitLowPowerMode, %function
 448              	EnterExitLowPowerMode:
 449              	.LFB41:
 274:.\main.c      **** /**************************************************************************************************
 275:.\main.c      **** 
 276:.\main.c      **** /**************************************************************************************************
 277:.\main.c      **** * Function Name: EnterExitLowPowerMode
 278:.\main.c      **** ***************************************************************************************************
 279:.\main.c      **** * Summary: This function puts the BLESS and CPU to deep sleep mode. 
 280:.\main.c      **** * System will resume from here when it wakes up from user button press.
 281:.\main.c      **** *
 282:.\main.c      **** * Parameters:
 283:.\main.c      **** *  void
 284:.\main.c      **** *
 285:.\main.c      **** * Return:
 286:.\main.c      **** *  void
 287:.\main.c      **** *
 288:.\main.c      **** ***************************************************************************************************
 289:.\main.c      **** void EnterExitLowPowerMode(void)
 290:.\main.c      **** {
 450              		.loc 1 290 0
 451              		.cfi_startproc
ARM GAS  C:\Users\Ecapable\AppData\Local\Temp\ccUEQhMk.s 			page 14


 452 0000 80B5     		push	{r7, lr}
 453              		.cfi_def_cfa_offset 8
 454              		.cfi_offset 7, -8
 455              		.cfi_offset 14, -4
 456 0002 00AF     		add	r7, sp, #0
 457              		.cfi_def_cfa_register 7
 291:.\main.c      **** 	I2C_Sleep(); //Put I2C to sleep
 458              		.loc 1 291 0
 459 0004 FFF7FEFF 		bl	I2C_Sleep
 292:.\main.c      ****     
 293:.\main.c      ****     /* Change the pin drive mode to save power consumption */
 294:.\main.c      ****     if(ChangePowerPinDriveMode)
 460              		.loc 1 294 0
 461 0008 1D4B     		ldr	r3, .L31
 462 000a 1B78     		ldrb	r3, [r3]
 463 000c 002B     		cmp	r3, #0
 464 000e 05D0     		beq	.L25
 295:.\main.c      ****     {
 296:.\main.c      ****         GND_SetDriveMode(GND_DM_ALG_HIZ); //Set the GND pin drive mode to Hi-Z
 465              		.loc 1 296 0
 466 0010 0020     		mov	r0, #0
 467 0012 FFF7FEFF 		bl	GND_SetDriveMode
 297:.\main.c      ****         VDD_SetDriveMode(VDD_DM_ALG_HIZ); //Set the VDD pin drive mode to Hi-Z
 468              		.loc 1 297 0
 469 0016 0020     		mov	r0, #0
 470 0018 FFF7FEFF 		bl	VDD_SetDriveMode
 471              	.L25:
 298:.\main.c      ****     }
 299:.\main.c      **** 	
 300:.\main.c      **** 	SleepMode = CyBle_EnterLPM(CYBLE_BLESS_DEEPSLEEP); //Put the BLESS to sleep
 472              		.loc 1 300 0
 473 001c 0320     		mov	r0, #3
 474 001e FFF7FEFF 		bl	CyBle_EnterLPM
 475 0022 031C     		mov	r3, r0
 476 0024 1A1C     		mov	r2, r3
 477 0026 174B     		ldr	r3, .L31+4
 478 0028 1A70     		strb	r2, [r3]
 301:.\main.c      ****     
 302:.\main.c      ****     CyGlobalIntDisable; //Disable global interrupts
 479              		.loc 1 302 0
 480              	@ 302 ".\main.c" 1
 481 002a 72B6     		CPSID   i
 482              	@ 0 "" 2
 303:.\main.c      ****     
 304:.\main.c      ****     BlessState = CyBle_GetBleSsState(); //Check the Status of BLESS
 483              		.loc 1 304 0
 484              		.code	16
 485 002c FFF7FEFF 		bl	CyBle_GetBleSsState
 486 0030 031C     		mov	r3, r0
 487 0032 1A1C     		mov	r2, r3
 488 0034 144B     		ldr	r3, .L31+8
 489 0036 1A70     		strb	r2, [r3]
 305:.\main.c      ****     
 306:.\main.c      ****     if(SleepMode == CYBLE_BLESS_DEEPSLEEP)
 490              		.loc 1 306 0
 491 0038 124B     		ldr	r3, .L31+4
 492 003a 1B78     		ldrb	r3, [r3]
ARM GAS  C:\Users\Ecapable\AppData\Local\Temp\ccUEQhMk.s 			page 15


 493 003c 032B     		cmp	r3, #3
 494 003e 0AD1     		bne	.L26
 307:.\main.c      ****     {
 308:.\main.c      ****         if(BlessState == CYBLE_BLESS_STATE_ECO_ON || BlessState == CYBLE_BLESS_STATE_DEEPSLEEP)
 495              		.loc 1 308 0
 496 0040 114B     		ldr	r3, .L31+8
 497 0042 1B78     		ldrb	r3, [r3]
 498 0044 042B     		cmp	r3, #4
 499 0046 03D0     		beq	.L27
 500              		.loc 1 308 0 is_stmt 0 discriminator 1
 501 0048 0F4B     		ldr	r3, .L31+8
 502 004a 1B78     		ldrb	r3, [r3]
 503 004c 062B     		cmp	r3, #6
 504 004e 08D1     		bne	.L29
 505              	.L27:
 309:.\main.c      ****         {
 310:.\main.c      ****             CySysPmDeepSleep(); //Put the CPU to Deep Sleep mode when the ECO has started
 506              		.loc 1 310 0 is_stmt 1
 507 0050 FFF7FEFF 		bl	CySysPmDeepSleep
 508 0054 05E0     		b	.L29
 509              	.L26:
 311:.\main.c      ****         }
 312:.\main.c      ****     }
 313:.\main.c      ****     else
 314:.\main.c      ****     {    
 315:.\main.c      ****         if(BlessState != CYBLE_BLESS_STATE_EVENT_CLOSE)
 510              		.loc 1 315 0
 511 0056 0C4B     		ldr	r3, .L31+8
 512 0058 1B78     		ldrb	r3, [r3]
 513 005a 022B     		cmp	r3, #2
 514 005c 01D0     		beq	.L29
 316:.\main.c      ****         {
 317:.\main.c      ****             CySysPmSleep(); //Put the CPU to Sleep mode if all the BLE events are not closed
 515              		.loc 1 317 0
 516 005e FFF7FEFF 		bl	CySysPmSleep
 517              	.L29:
 318:.\main.c      ****         }
 319:.\main.c      ****     }
 320:.\main.c      ****     
 321:.\main.c      ****     CyGlobalIntEnable; //Enable global interrupts
 518              		.loc 1 321 0
 519              	@ 321 ".\main.c" 1
 520 0062 62B6     		CPSIE   i
 521              	@ 0 "" 2
 322:.\main.c      ****     
 323:.\main.c      ****     /* Revert the pin drive mode back to the original set in the initialization */
 324:.\main.c      ****     if(ChangePowerPinDriveMode)
 522              		.loc 1 324 0
 523              		.code	16
 524 0064 064B     		ldr	r3, .L31
 525 0066 1B78     		ldrb	r3, [r3]
 526 0068 002B     		cmp	r3, #0
 527 006a 05D0     		beq	.L30
 325:.\main.c      ****     {
 326:.\main.c      ****         GND_SetDriveMode(GND_DM_STRONG); //Set the GND pin drive mode to Strong
 528              		.loc 1 326 0
 529 006c 0620     		mov	r0, #6
ARM GAS  C:\Users\Ecapable\AppData\Local\Temp\ccUEQhMk.s 			page 16


 530 006e FFF7FEFF 		bl	GND_SetDriveMode
 327:.\main.c      ****         VDD_SetDriveMode(VDD_DM_STRONG); //Set the VDD pin drive mode to Strong
 531              		.loc 1 327 0
 532 0072 0620     		mov	r0, #6
 533 0074 FFF7FEFF 		bl	VDD_SetDriveMode
 534              	.L30:
 328:.\main.c      ****     }
 329:.\main.c      ****     
 330:.\main.c      ****     I2C_Wakeup(); //Wakeup the I2C
 535              		.loc 1 330 0
 536 0078 FFF7FEFF 		bl	I2C_Wakeup
 331:.\main.c      **** }
 537              		.loc 1 331 0
 538 007c BD46     		mov	sp, r7
 539              		@ sp needed
 540 007e 80BD     		pop	{r7, pc}
 541              	.L32:
 542              		.align	2
 543              	.L31:
 544 0080 00000000 		.word	ChangePowerPinDriveMode
 545 0084 00000000 		.word	SleepMode
 546 0088 01000000 		.word	BlessState
 547              		.cfi_endproc
 548              	.LFE41:
 549              		.size	EnterExitLowPowerMode, .-EnterExitLowPowerMode
 550              		.section	.text.ButtonISR,"ax",%progbits
 551              		.align	2
 552              		.global	ButtonISR
 553              		.code	16
 554              		.thumb_func
 555              		.type	ButtonISR, %function
 556              	ButtonISR:
 557              	.LFB42:
 332:.\main.c      **** /**************************************************************************************************
 333:.\main.c      **** 
 334:.\main.c      **** /**************************************************************************************************
 335:.\main.c      **** * Function Name: CY_ISR
 336:.\main.c      **** ***************************************************************************************************
 337:.\main.c      **** * Summary: ISR routine for button interrupt. The system enters here after the CPU wakeup.
 338:.\main.c      **** * It also Clears pending interrupt.
 339:.\main.c      **** *
 340:.\main.c      **** * Parameters:
 341:.\main.c      **** *  ButtonISR - Address of the ISR to set in the interrupt vector table
 342:.\main.c      **** *
 343:.\main.c      **** * Return:
 344:.\main.c      **** *  void
 345:.\main.c      **** *
 346:.\main.c      **** ***************************************************************************************************
 347:.\main.c      **** CY_ISR(ButtonISR)
 348:.\main.c      **** {
 558              		.loc 1 348 0
 559              		.cfi_startproc
 560 0000 80B5     		push	{r7, lr}
 561              		.cfi_def_cfa_offset 8
 562              		.cfi_offset 7, -8
 563              		.cfi_offset 14, -4
 564 0002 00AF     		add	r7, sp, #0
ARM GAS  C:\Users\Ecapable\AppData\Local\Temp\ccUEQhMk.s 			page 17


 565              		.cfi_def_cfa_register 7
 349:.\main.c      ****     /* Clear the pending interrupts */
 350:.\main.c      ****     Btn_Interrupt_ClearPending();    
 566              		.loc 1 350 0
 567 0004 FFF7FEFF 		bl	Btn_Interrupt_ClearPending
 351:.\main.c      ****     Button_ClearInterrupt();
 568              		.loc 1 351 0
 569 0008 FFF7FEFF 		bl	Button_ClearInterrupt
 352:.\main.c      **** }
 570              		.loc 1 352 0
 571 000c BD46     		mov	sp, r7
 572              		@ sp needed
 573 000e 80BD     		pop	{r7, pc}
 574              		.cfi_endproc
 575              	.LFE42:
 576              		.size	ButtonISR, .-ButtonISR
 577              		.text
 578              	.Letext0:
 579              		.file 2 "Generated_Source\\PSoC4/BLE_Stack.h"
 580              		.file 3 "Generated_Source\\PSoC4/cytypes.h"
 581              		.file 4 "Generated_Source\\PSoC4/BLE_eventHandler.h"